
obj/kern/kernel:     file format elf64-x86-64


Disassembly of section .bootstrap:

0000000000100000 <_head64>:
.globl _head64
_head64:

# Save multiboot_info addr passed by bootloader
	
    movl $multiboot_info, %eax
  100000:	b8 00 70 10 00       	mov    $0x107000,%eax
    movl %ebx, (%eax)
  100005:	89 18                	mov    %ebx,(%rax)

    movw $0x1234,0x472			# warm boot	
  100007:	66 c7 05 72 04 00 00 	movw   $0x1234,0x472(%rip)        # 100482 <verify_cpu_no_longmode+0x36f>
  10000e:	34 12 
	
# Reset the stack pointer in case we didn't come from the loader
    movl $0x7c00,%esp
  100010:	bc 00 7c 00 00       	mov    $0x7c00,%esp

    call verify_cpu   #check if CPU supports long mode
  100015:	e8 cc 00 00 00       	callq  1000e6 <verify_cpu>
    movl $CR4_PAE,%eax	
  10001a:	b8 20 00 00 00       	mov    $0x20,%eax
    movl %eax,%cr4
  10001f:	0f 22 e0             	mov    %rax,%cr4

# build an early boot pml4 at physical address pml4phys 

    #initializing the page tables
    movl $pml4,%edi
  100022:	bf 00 20 10 00       	mov    $0x102000,%edi
    xorl %eax,%eax
  100027:	31 c0                	xor    %eax,%eax
    movl $((4096/4)*5),%ecx  # moving these many words to the 6 pages with 4 second level pages + 1 3rd level + 1 4th level pages 
  100029:	b9 00 14 00 00       	mov    $0x1400,%ecx
    rep stosl
  10002e:	f3 ab                	rep stos %eax,%es:(%rdi)
    # creating a 4G boot page table
    # setting the 4th level page table only the second entry needed (PML4)
    movl $pml4,%eax
  100030:	b8 00 20 10 00       	mov    $0x102000,%eax
    movl $pdpt1, %ebx
  100035:	bb 00 30 10 00       	mov    $0x103000,%ebx
    orl $PTE_P,%ebx
  10003a:	83 cb 01             	or     $0x1,%ebx
    orl $PTE_W,%ebx
  10003d:	83 cb 02             	or     $0x2,%ebx
    movl %ebx,(%eax)
  100040:	89 18                	mov    %ebx,(%rax)

    movl $pdpt2, %ebx
  100042:	bb 00 40 10 00       	mov    $0x104000,%ebx
    orl $PTE_P,%ebx
  100047:	83 cb 01             	or     $0x1,%ebx
    orl $PTE_W,%ebx
  10004a:	83 cb 02             	or     $0x2,%ebx
    movl %ebx,0x8(%eax)
  10004d:	89 58 08             	mov    %ebx,0x8(%rax)

    # setting the 3rd level page table (PDPE)
    # 4 entries (counter in ecx), point to the next four physical pages (pgdirs)
    # pgdirs in 0xa0000--0xd000
    movl $pdpt1,%edi
  100050:	bf 00 30 10 00       	mov    $0x103000,%edi
    movl $pde1,%ebx
  100055:	bb 00 50 10 00       	mov    $0x105000,%ebx
    orl $PTE_P,%ebx
  10005a:	83 cb 01             	or     $0x1,%ebx
    orl $PTE_W,%ebx
  10005d:	83 cb 02             	or     $0x2,%ebx
    movl %ebx,(%edi)
  100060:	89 1f                	mov    %ebx,(%rdi)

    movl $pdpt2,%edi
  100062:	bf 00 40 10 00       	mov    $0x104000,%edi
    movl $pde2,%ebx
  100067:	bb 00 60 10 00       	mov    $0x106000,%ebx
    orl $PTE_P,%ebx
  10006c:	83 cb 01             	or     $0x1,%ebx
    orl $PTE_W,%ebx
  10006f:	83 cb 02             	or     $0x2,%ebx
    movl %ebx,(%edi)
  100072:	89 1f                	mov    %ebx,(%rdi)
    
    # setting the pgdir so that the LA=PA
    # mapping first 1G of mem at KERNBASE
    movl $128,%ecx
  100074:	b9 80 00 00 00       	mov    $0x80,%ecx
    # Start at the end and work backwards
    #leal (pml4 + 5*0x1000 - 0x8),%edi
    movl $pde1,%edi
  100079:	bf 00 50 10 00       	mov    $0x105000,%edi
    movl $pde2,%ebx
  10007e:	bb 00 60 10 00       	mov    $0x106000,%ebx
    #64th entry - 0x8004000000
    addl $256,%ebx 
  100083:	81 c3 00 01 00 00    	add    $0x100,%ebx
    # PTE_P|PTE_W|PTE_MBZ
    movl $0x00000183,%eax
  100089:	b8 83 01 00 00       	mov    $0x183,%eax
  1:
     movl %eax,(%edi)
  10008e:	89 07                	mov    %eax,(%rdi)
     movl %eax,(%ebx)
  100090:	89 03                	mov    %eax,(%rbx)
     addl $0x8,%edi
  100092:	83 c7 08             	add    $0x8,%edi
     addl $0x8,%ebx
  100095:	83 c3 08             	add    $0x8,%ebx
     addl $0x00200000,%eax
  100098:	05 00 00 20 00       	add    $0x200000,%eax
     subl $1,%ecx
  10009d:	83 e9 01             	sub    $0x1,%ecx
     cmp $0x0,%ecx
  1000a0:	83 f9 00             	cmp    $0x0,%ecx
     jne 1b
  1000a3:	75 e9                	jne    10008e <_head64+0x8e>
 /*    subl $1,%ecx */
 /*    cmp $0x0,%ecx */
 /*    jne 1b */

    # set the cr3 register
    movl $pml4,%eax
  1000a5:	b8 00 20 10 00       	mov    $0x102000,%eax
    movl %eax, %cr3
  1000aa:	0f 22 d8             	mov    %rax,%cr3

	
    # enable the long mode in MSR
    movl $EFER_MSR,%ecx
  1000ad:	b9 80 00 00 c0       	mov    $0xc0000080,%ecx
    rdmsr
  1000b2:	0f 32                	rdmsr  
    btsl $EFER_LME,%eax
  1000b4:	0f ba e8 08          	bts    $0x8,%eax
    wrmsr
  1000b8:	0f 30                	wrmsr  
    
    # enable paging 
    movl %cr0,%eax
  1000ba:	0f 20 c0             	mov    %cr0,%rax
    orl $CR0_PE,%eax
  1000bd:	83 c8 01             	or     $0x1,%eax
    orl $CR0_PG,%eax
  1000c0:	0d 00 00 00 80       	or     $0x80000000,%eax
    orl $CR0_AM,%eax
  1000c5:	0d 00 00 04 00       	or     $0x40000,%eax
    orl $CR0_WP,%eax
  1000ca:	0d 00 00 01 00       	or     $0x10000,%eax
    orl $CR0_MP,%eax
  1000cf:	83 c8 02             	or     $0x2,%eax
    movl %eax,%cr0
  1000d2:	0f 22 c0             	mov    %rax,%cr0
    #jump to long mode with CS=0 and

    movl $gdtdesc_64,%eax
  1000d5:	b8 18 10 10 00       	mov    $0x101018,%eax
    lgdt (%eax)
  1000da:	0f 01 10             	lgdt   (%rax)
    pushl $0x8
  1000dd:	6a 08                	pushq  $0x8
    movl $_start,%eax
  1000df:	b8 0c 00 20 00       	mov    $0x20000c,%eax
    pushl %eax
  1000e4:	50                   	push   %rax

00000000001000e5 <jumpto_longmode>:
    
    .globl jumpto_longmode
    .type jumpto_longmode,@function
jumpto_longmode:
    lret
  1000e5:	cb                   	lret   

00000000001000e6 <verify_cpu>:
/*     movabs $_back_from_head64, %rax */
/*     pushq %rax */
/*     lretq */

verify_cpu:
    pushfl                   # get eflags in eax -- standardard way to check for cpuid
  1000e6:	9c                   	pushfq 
    popl %eax
  1000e7:	58                   	pop    %rax
    movl %eax,%ecx
  1000e8:	89 c1                	mov    %eax,%ecx
    xorl $0x200000, %eax
  1000ea:	35 00 00 20 00       	xor    $0x200000,%eax
    pushl %eax
  1000ef:	50                   	push   %rax
    popfl
  1000f0:	9d                   	popfq  
    pushfl
  1000f1:	9c                   	pushfq 
    popl %eax
  1000f2:	58                   	pop    %rax
    cmpl %eax,%ebx
  1000f3:	39 c3                	cmp    %eax,%ebx
    jz verify_cpu_no_longmode   # no cpuid -- no long mode
  1000f5:	74 1c                	je     100113 <verify_cpu_no_longmode>

    movl $0x0,%eax              # see if cpuid 1 is implemented
  1000f7:	b8 00 00 00 00       	mov    $0x0,%eax
    cpuid
  1000fc:	0f a2                	cpuid  
    cmpl $0x1,%eax
  1000fe:	83 f8 01             	cmp    $0x1,%eax
    jb verify_cpu_no_longmode    # cpuid 1 is not implemented
  100101:	72 10                	jb     100113 <verify_cpu_no_longmode>


    mov $0x80000001, %eax
  100103:	b8 01 00 00 80       	mov    $0x80000001,%eax
    cpuid                 
  100108:	0f a2                	cpuid  
    test $(1 << 29),%edx                 #Test if the LM-bit, is set or not.
  10010a:	f7 c2 00 00 00 20    	test   $0x20000000,%edx
    jz verify_cpu_no_longmode
  100110:	74 01                	je     100113 <verify_cpu_no_longmode>

    ret
  100112:	c3                   	retq   

0000000000100113 <verify_cpu_no_longmode>:

verify_cpu_no_longmode:
    jmp verify_cpu_no_longmode
  100113:	eb fe                	jmp    100113 <verify_cpu_no_longmode>
  100115:	66 2e 0f 1f 84 00 00 	nopw   %cs:0x0(%rax,%rax,1)
  10011c:	00 00 00 
  10011f:	66 2e 0f 1f 84 00 00 	nopw   %cs:0x0(%rax,%rax,1)
  100126:	00 00 00 
  100129:	66 2e 0f 1f 84 00 00 	nopw   %cs:0x0(%rax,%rax,1)
  100130:	00 00 00 
  100133:	66 2e 0f 1f 84 00 00 	nopw   %cs:0x0(%rax,%rax,1)
  10013a:	00 00 00 
  10013d:	66 2e 0f 1f 84 00 00 	nopw   %cs:0x0(%rax,%rax,1)
  100144:	00 00 00 
  100147:	66 2e 0f 1f 84 00 00 	nopw   %cs:0x0(%rax,%rax,1)
  10014e:	00 00 00 
  100151:	66 2e 0f 1f 84 00 00 	nopw   %cs:0x0(%rax,%rax,1)
  100158:	00 00 00 
  10015b:	66 2e 0f 1f 84 00 00 	nopw   %cs:0x0(%rax,%rax,1)
  100162:	00 00 00 
  100165:	66 2e 0f 1f 84 00 00 	nopw   %cs:0x0(%rax,%rax,1)
  10016c:	00 00 00 
  10016f:	66 2e 0f 1f 84 00 00 	nopw   %cs:0x0(%rax,%rax,1)
  100176:	00 00 00 
  100179:	66 2e 0f 1f 84 00 00 	nopw   %cs:0x0(%rax,%rax,1)
  100180:	00 00 00 
  100183:	66 2e 0f 1f 84 00 00 	nopw   %cs:0x0(%rax,%rax,1)
  10018a:	00 00 00 
  10018d:	66 2e 0f 1f 84 00 00 	nopw   %cs:0x0(%rax,%rax,1)
  100194:	00 00 00 
  100197:	66 2e 0f 1f 84 00 00 	nopw   %cs:0x0(%rax,%rax,1)
  10019e:	00 00 00 
  1001a1:	66 2e 0f 1f 84 00 00 	nopw   %cs:0x0(%rax,%rax,1)
  1001a8:	00 00 00 
  1001ab:	66 2e 0f 1f 84 00 00 	nopw   %cs:0x0(%rax,%rax,1)
  1001b2:	00 00 00 
  1001b5:	66 2e 0f 1f 84 00 00 	nopw   %cs:0x0(%rax,%rax,1)
  1001bc:	00 00 00 
  1001bf:	66 2e 0f 1f 84 00 00 	nopw   %cs:0x0(%rax,%rax,1)
  1001c6:	00 00 00 
  1001c9:	66 2e 0f 1f 84 00 00 	nopw   %cs:0x0(%rax,%rax,1)
  1001d0:	00 00 00 
  1001d3:	66 2e 0f 1f 84 00 00 	nopw   %cs:0x0(%rax,%rax,1)
  1001da:	00 00 00 
  1001dd:	66 2e 0f 1f 84 00 00 	nopw   %cs:0x0(%rax,%rax,1)
  1001e4:	00 00 00 
  1001e7:	66 2e 0f 1f 84 00 00 	nopw   %cs:0x0(%rax,%rax,1)
  1001ee:	00 00 00 
  1001f1:	66 2e 0f 1f 84 00 00 	nopw   %cs:0x0(%rax,%rax,1)
  1001f8:	00 00 00 
  1001fb:	66 2e 0f 1f 84 00 00 	nopw   %cs:0x0(%rax,%rax,1)
  100202:	00 00 00 
  100205:	66 2e 0f 1f 84 00 00 	nopw   %cs:0x0(%rax,%rax,1)
  10020c:	00 00 00 
  10020f:	66 2e 0f 1f 84 00 00 	nopw   %cs:0x0(%rax,%rax,1)
  100216:	00 00 00 
  100219:	66 2e 0f 1f 84 00 00 	nopw   %cs:0x0(%rax,%rax,1)
  100220:	00 00 00 
  100223:	66 2e 0f 1f 84 00 00 	nopw   %cs:0x0(%rax,%rax,1)
  10022a:	00 00 00 
  10022d:	66 2e 0f 1f 84 00 00 	nopw   %cs:0x0(%rax,%rax,1)
  100234:	00 00 00 
  100237:	66 2e 0f 1f 84 00 00 	nopw   %cs:0x0(%rax,%rax,1)
  10023e:	00 00 00 
  100241:	66 2e 0f 1f 84 00 00 	nopw   %cs:0x0(%rax,%rax,1)
  100248:	00 00 00 
  10024b:	66 2e 0f 1f 84 00 00 	nopw   %cs:0x0(%rax,%rax,1)
  100252:	00 00 00 
  100255:	66 2e 0f 1f 84 00 00 	nopw   %cs:0x0(%rax,%rax,1)
  10025c:	00 00 00 
  10025f:	66 2e 0f 1f 84 00 00 	nopw   %cs:0x0(%rax,%rax,1)
  100266:	00 00 00 
  100269:	66 2e 0f 1f 84 00 00 	nopw   %cs:0x0(%rax,%rax,1)
  100270:	00 00 00 
  100273:	66 2e 0f 1f 84 00 00 	nopw   %cs:0x0(%rax,%rax,1)
  10027a:	00 00 00 
  10027d:	66 2e 0f 1f 84 00 00 	nopw   %cs:0x0(%rax,%rax,1)
  100284:	00 00 00 
  100287:	66 2e 0f 1f 84 00 00 	nopw   %cs:0x0(%rax,%rax,1)
  10028e:	00 00 00 
  100291:	66 2e 0f 1f 84 00 00 	nopw   %cs:0x0(%rax,%rax,1)
  100298:	00 00 00 
  10029b:	66 2e 0f 1f 84 00 00 	nopw   %cs:0x0(%rax,%rax,1)
  1002a2:	00 00 00 
  1002a5:	66 2e 0f 1f 84 00 00 	nopw   %cs:0x0(%rax,%rax,1)
  1002ac:	00 00 00 
  1002af:	66 2e 0f 1f 84 00 00 	nopw   %cs:0x0(%rax,%rax,1)
  1002b6:	00 00 00 
  1002b9:	66 2e 0f 1f 84 00 00 	nopw   %cs:0x0(%rax,%rax,1)
  1002c0:	00 00 00 
  1002c3:	66 2e 0f 1f 84 00 00 	nopw   %cs:0x0(%rax,%rax,1)
  1002ca:	00 00 00 
  1002cd:	66 2e 0f 1f 84 00 00 	nopw   %cs:0x0(%rax,%rax,1)
  1002d4:	00 00 00 
  1002d7:	66 2e 0f 1f 84 00 00 	nopw   %cs:0x0(%rax,%rax,1)
  1002de:	00 00 00 
  1002e1:	66 2e 0f 1f 84 00 00 	nopw   %cs:0x0(%rax,%rax,1)
  1002e8:	00 00 00 
  1002eb:	66 2e 0f 1f 84 00 00 	nopw   %cs:0x0(%rax,%rax,1)
  1002f2:	00 00 00 
  1002f5:	66 2e 0f 1f 84 00 00 	nopw   %cs:0x0(%rax,%rax,1)
  1002fc:	00 00 00 
  1002ff:	66 2e 0f 1f 84 00 00 	nopw   %cs:0x0(%rax,%rax,1)
  100306:	00 00 00 
  100309:	66 2e 0f 1f 84 00 00 	nopw   %cs:0x0(%rax,%rax,1)
  100310:	00 00 00 
  100313:	66 2e 0f 1f 84 00 00 	nopw   %cs:0x0(%rax,%rax,1)
  10031a:	00 00 00 
  10031d:	66 2e 0f 1f 84 00 00 	nopw   %cs:0x0(%rax,%rax,1)
  100324:	00 00 00 
  100327:	66 2e 0f 1f 84 00 00 	nopw   %cs:0x0(%rax,%rax,1)
  10032e:	00 00 00 
  100331:	66 2e 0f 1f 84 00 00 	nopw   %cs:0x0(%rax,%rax,1)
  100338:	00 00 00 
  10033b:	66 2e 0f 1f 84 00 00 	nopw   %cs:0x0(%rax,%rax,1)
  100342:	00 00 00 
  100345:	66 2e 0f 1f 84 00 00 	nopw   %cs:0x0(%rax,%rax,1)
  10034c:	00 00 00 
  10034f:	66 2e 0f 1f 84 00 00 	nopw   %cs:0x0(%rax,%rax,1)
  100356:	00 00 00 
  100359:	66 2e 0f 1f 84 00 00 	nopw   %cs:0x0(%rax,%rax,1)
  100360:	00 00 00 
  100363:	66 2e 0f 1f 84 00 00 	nopw   %cs:0x0(%rax,%rax,1)
  10036a:	00 00 00 
  10036d:	66 2e 0f 1f 84 00 00 	nopw   %cs:0x0(%rax,%rax,1)
  100374:	00 00 00 
  100377:	66 2e 0f 1f 84 00 00 	nopw   %cs:0x0(%rax,%rax,1)
  10037e:	00 00 00 
  100381:	66 2e 0f 1f 84 00 00 	nopw   %cs:0x0(%rax,%rax,1)
  100388:	00 00 00 
  10038b:	66 2e 0f 1f 84 00 00 	nopw   %cs:0x0(%rax,%rax,1)
  100392:	00 00 00 
  100395:	66 2e 0f 1f 84 00 00 	nopw   %cs:0x0(%rax,%rax,1)
  10039c:	00 00 00 
  10039f:	66 2e 0f 1f 84 00 00 	nopw   %cs:0x0(%rax,%rax,1)
  1003a6:	00 00 00 
  1003a9:	66 2e 0f 1f 84 00 00 	nopw   %cs:0x0(%rax,%rax,1)
  1003b0:	00 00 00 
  1003b3:	66 2e 0f 1f 84 00 00 	nopw   %cs:0x0(%rax,%rax,1)
  1003ba:	00 00 00 
  1003bd:	66 2e 0f 1f 84 00 00 	nopw   %cs:0x0(%rax,%rax,1)
  1003c4:	00 00 00 
  1003c7:	66 2e 0f 1f 84 00 00 	nopw   %cs:0x0(%rax,%rax,1)
  1003ce:	00 00 00 
  1003d1:	66 2e 0f 1f 84 00 00 	nopw   %cs:0x0(%rax,%rax,1)
  1003d8:	00 00 00 
  1003db:	66 2e 0f 1f 84 00 00 	nopw   %cs:0x0(%rax,%rax,1)
  1003e2:	00 00 00 
  1003e5:	66 2e 0f 1f 84 00 00 	nopw   %cs:0x0(%rax,%rax,1)
  1003ec:	00 00 00 
  1003ef:	66 2e 0f 1f 84 00 00 	nopw   %cs:0x0(%rax,%rax,1)
  1003f6:	00 00 00 
  1003f9:	66 2e 0f 1f 84 00 00 	nopw   %cs:0x0(%rax,%rax,1)
  100400:	00 00 00 
  100403:	66 2e 0f 1f 84 00 00 	nopw   %cs:0x0(%rax,%rax,1)
  10040a:	00 00 00 
  10040d:	66 2e 0f 1f 84 00 00 	nopw   %cs:0x0(%rax,%rax,1)
  100414:	00 00 00 
  100417:	66 2e 0f 1f 84 00 00 	nopw   %cs:0x0(%rax,%rax,1)
  10041e:	00 00 00 
  100421:	66 2e 0f 1f 84 00 00 	nopw   %cs:0x0(%rax,%rax,1)
  100428:	00 00 00 
  10042b:	66 2e 0f 1f 84 00 00 	nopw   %cs:0x0(%rax,%rax,1)
  100432:	00 00 00 
  100435:	66 2e 0f 1f 84 00 00 	nopw   %cs:0x0(%rax,%rax,1)
  10043c:	00 00 00 
  10043f:	66 2e 0f 1f 84 00 00 	nopw   %cs:0x0(%rax,%rax,1)
  100446:	00 00 00 
  100449:	66 2e 0f 1f 84 00 00 	nopw   %cs:0x0(%rax,%rax,1)
  100450:	00 00 00 
  100453:	66 2e 0f 1f 84 00 00 	nopw   %cs:0x0(%rax,%rax,1)
  10045a:	00 00 00 
  10045d:	66 2e 0f 1f 84 00 00 	nopw   %cs:0x0(%rax,%rax,1)
  100464:	00 00 00 
  100467:	66 2e 0f 1f 84 00 00 	nopw   %cs:0x0(%rax,%rax,1)
  10046e:	00 00 00 
  100471:	66 2e 0f 1f 84 00 00 	nopw   %cs:0x0(%rax,%rax,1)
  100478:	00 00 00 
  10047b:	66 2e 0f 1f 84 00 00 	nopw   %cs:0x0(%rax,%rax,1)
  100482:	00 00 00 
  100485:	66 2e 0f 1f 84 00 00 	nopw   %cs:0x0(%rax,%rax,1)
  10048c:	00 00 00 
  10048f:	66 2e 0f 1f 84 00 00 	nopw   %cs:0x0(%rax,%rax,1)
  100496:	00 00 00 
  100499:	66 2e 0f 1f 84 00 00 	nopw   %cs:0x0(%rax,%rax,1)
  1004a0:	00 00 00 
  1004a3:	66 2e 0f 1f 84 00 00 	nopw   %cs:0x0(%rax,%rax,1)
  1004aa:	00 00 00 
  1004ad:	66 2e 0f 1f 84 00 00 	nopw   %cs:0x0(%rax,%rax,1)
  1004b4:	00 00 00 
  1004b7:	66 2e 0f 1f 84 00 00 	nopw   %cs:0x0(%rax,%rax,1)
  1004be:	00 00 00 
  1004c1:	66 2e 0f 1f 84 00 00 	nopw   %cs:0x0(%rax,%rax,1)
  1004c8:	00 00 00 
  1004cb:	66 2e 0f 1f 84 00 00 	nopw   %cs:0x0(%rax,%rax,1)
  1004d2:	00 00 00 
  1004d5:	66 2e 0f 1f 84 00 00 	nopw   %cs:0x0(%rax,%rax,1)
  1004dc:	00 00 00 
  1004df:	66 2e 0f 1f 84 00 00 	nopw   %cs:0x0(%rax,%rax,1)
  1004e6:	00 00 00 
  1004e9:	66 2e 0f 1f 84 00 00 	nopw   %cs:0x0(%rax,%rax,1)
  1004f0:	00 00 00 
  1004f3:	66 2e 0f 1f 84 00 00 	nopw   %cs:0x0(%rax,%rax,1)
  1004fa:	00 00 00 
  1004fd:	66 2e 0f 1f 84 00 00 	nopw   %cs:0x0(%rax,%rax,1)
  100504:	00 00 00 
  100507:	66 2e 0f 1f 84 00 00 	nopw   %cs:0x0(%rax,%rax,1)
  10050e:	00 00 00 
  100511:	66 2e 0f 1f 84 00 00 	nopw   %cs:0x0(%rax,%rax,1)
  100518:	00 00 00 
  10051b:	66 2e 0f 1f 84 00 00 	nopw   %cs:0x0(%rax,%rax,1)
  100522:	00 00 00 
  100525:	66 2e 0f 1f 84 00 00 	nopw   %cs:0x0(%rax,%rax,1)
  10052c:	00 00 00 
  10052f:	66 2e 0f 1f 84 00 00 	nopw   %cs:0x0(%rax,%rax,1)
  100536:	00 00 00 
  100539:	66 2e 0f 1f 84 00 00 	nopw   %cs:0x0(%rax,%rax,1)
  100540:	00 00 00 
  100543:	66 2e 0f 1f 84 00 00 	nopw   %cs:0x0(%rax,%rax,1)
  10054a:	00 00 00 
  10054d:	66 2e 0f 1f 84 00 00 	nopw   %cs:0x0(%rax,%rax,1)
  100554:	00 00 00 
  100557:	66 2e 0f 1f 84 00 00 	nopw   %cs:0x0(%rax,%rax,1)
  10055e:	00 00 00 
  100561:	66 2e 0f 1f 84 00 00 	nopw   %cs:0x0(%rax,%rax,1)
  100568:	00 00 00 
  10056b:	66 2e 0f 1f 84 00 00 	nopw   %cs:0x0(%rax,%rax,1)
  100572:	00 00 00 
  100575:	66 2e 0f 1f 84 00 00 	nopw   %cs:0x0(%rax,%rax,1)
  10057c:	00 00 00 
  10057f:	66 2e 0f 1f 84 00 00 	nopw   %cs:0x0(%rax,%rax,1)
  100586:	00 00 00 
  100589:	66 2e 0f 1f 84 00 00 	nopw   %cs:0x0(%rax,%rax,1)
  100590:	00 00 00 
  100593:	66 2e 0f 1f 84 00 00 	nopw   %cs:0x0(%rax,%rax,1)
  10059a:	00 00 00 
  10059d:	66 2e 0f 1f 84 00 00 	nopw   %cs:0x0(%rax,%rax,1)
  1005a4:	00 00 00 
  1005a7:	66 2e 0f 1f 84 00 00 	nopw   %cs:0x0(%rax,%rax,1)
  1005ae:	00 00 00 
  1005b1:	66 2e 0f 1f 84 00 00 	nopw   %cs:0x0(%rax,%rax,1)
  1005b8:	00 00 00 
  1005bb:	66 2e 0f 1f 84 00 00 	nopw   %cs:0x0(%rax,%rax,1)
  1005c2:	00 00 00 
  1005c5:	66 2e 0f 1f 84 00 00 	nopw   %cs:0x0(%rax,%rax,1)
  1005cc:	00 00 00 
  1005cf:	66 2e 0f 1f 84 00 00 	nopw   %cs:0x0(%rax,%rax,1)
  1005d6:	00 00 00 
  1005d9:	66 2e 0f 1f 84 00 00 	nopw   %cs:0x0(%rax,%rax,1)
  1005e0:	00 00 00 
  1005e3:	66 2e 0f 1f 84 00 00 	nopw   %cs:0x0(%rax,%rax,1)
  1005ea:	00 00 00 
  1005ed:	66 2e 0f 1f 84 00 00 	nopw   %cs:0x0(%rax,%rax,1)
  1005f4:	00 00 00 
  1005f7:	66 2e 0f 1f 84 00 00 	nopw   %cs:0x0(%rax,%rax,1)
  1005fe:	00 00 00 
  100601:	66 2e 0f 1f 84 00 00 	nopw   %cs:0x0(%rax,%rax,1)
  100608:	00 00 00 
  10060b:	66 2e 0f 1f 84 00 00 	nopw   %cs:0x0(%rax,%rax,1)
  100612:	00 00 00 
  100615:	66 2e 0f 1f 84 00 00 	nopw   %cs:0x0(%rax,%rax,1)
  10061c:	00 00 00 
  10061f:	66 2e 0f 1f 84 00 00 	nopw   %cs:0x0(%rax,%rax,1)
  100626:	00 00 00 
  100629:	66 2e 0f 1f 84 00 00 	nopw   %cs:0x0(%rax,%rax,1)
  100630:	00 00 00 
  100633:	66 2e 0f 1f 84 00 00 	nopw   %cs:0x0(%rax,%rax,1)
  10063a:	00 00 00 
  10063d:	66 2e 0f 1f 84 00 00 	nopw   %cs:0x0(%rax,%rax,1)
  100644:	00 00 00 
  100647:	66 2e 0f 1f 84 00 00 	nopw   %cs:0x0(%rax,%rax,1)
  10064e:	00 00 00 
  100651:	66 2e 0f 1f 84 00 00 	nopw   %cs:0x0(%rax,%rax,1)
  100658:	00 00 00 
  10065b:	66 2e 0f 1f 84 00 00 	nopw   %cs:0x0(%rax,%rax,1)
  100662:	00 00 00 
  100665:	66 2e 0f 1f 84 00 00 	nopw   %cs:0x0(%rax,%rax,1)
  10066c:	00 00 00 
  10066f:	66 2e 0f 1f 84 00 00 	nopw   %cs:0x0(%rax,%rax,1)
  100676:	00 00 00 
  100679:	66 2e 0f 1f 84 00 00 	nopw   %cs:0x0(%rax,%rax,1)
  100680:	00 00 00 
  100683:	66 2e 0f 1f 84 00 00 	nopw   %cs:0x0(%rax,%rax,1)
  10068a:	00 00 00 
  10068d:	66 2e 0f 1f 84 00 00 	nopw   %cs:0x0(%rax,%rax,1)
  100694:	00 00 00 
  100697:	66 2e 0f 1f 84 00 00 	nopw   %cs:0x0(%rax,%rax,1)
  10069e:	00 00 00 
  1006a1:	66 2e 0f 1f 84 00 00 	nopw   %cs:0x0(%rax,%rax,1)
  1006a8:	00 00 00 
  1006ab:	66 2e 0f 1f 84 00 00 	nopw   %cs:0x0(%rax,%rax,1)
  1006b2:	00 00 00 
  1006b5:	66 2e 0f 1f 84 00 00 	nopw   %cs:0x0(%rax,%rax,1)
  1006bc:	00 00 00 
  1006bf:	66 2e 0f 1f 84 00 00 	nopw   %cs:0x0(%rax,%rax,1)
  1006c6:	00 00 00 
  1006c9:	66 2e 0f 1f 84 00 00 	nopw   %cs:0x0(%rax,%rax,1)
  1006d0:	00 00 00 
  1006d3:	66 2e 0f 1f 84 00 00 	nopw   %cs:0x0(%rax,%rax,1)
  1006da:	00 00 00 
  1006dd:	66 2e 0f 1f 84 00 00 	nopw   %cs:0x0(%rax,%rax,1)
  1006e4:	00 00 00 
  1006e7:	66 2e 0f 1f 84 00 00 	nopw   %cs:0x0(%rax,%rax,1)
  1006ee:	00 00 00 
  1006f1:	66 2e 0f 1f 84 00 00 	nopw   %cs:0x0(%rax,%rax,1)
  1006f8:	00 00 00 
  1006fb:	66 2e 0f 1f 84 00 00 	nopw   %cs:0x0(%rax,%rax,1)
  100702:	00 00 00 
  100705:	66 2e 0f 1f 84 00 00 	nopw   %cs:0x0(%rax,%rax,1)
  10070c:	00 00 00 
  10070f:	66 2e 0f 1f 84 00 00 	nopw   %cs:0x0(%rax,%rax,1)
  100716:	00 00 00 
  100719:	66 2e 0f 1f 84 00 00 	nopw   %cs:0x0(%rax,%rax,1)
  100720:	00 00 00 
  100723:	66 2e 0f 1f 84 00 00 	nopw   %cs:0x0(%rax,%rax,1)
  10072a:	00 00 00 
  10072d:	66 2e 0f 1f 84 00 00 	nopw   %cs:0x0(%rax,%rax,1)
  100734:	00 00 00 
  100737:	66 2e 0f 1f 84 00 00 	nopw   %cs:0x0(%rax,%rax,1)
  10073e:	00 00 00 
  100741:	66 2e 0f 1f 84 00 00 	nopw   %cs:0x0(%rax,%rax,1)
  100748:	00 00 00 
  10074b:	66 2e 0f 1f 84 00 00 	nopw   %cs:0x0(%rax,%rax,1)
  100752:	00 00 00 
  100755:	66 2e 0f 1f 84 00 00 	nopw   %cs:0x0(%rax,%rax,1)
  10075c:	00 00 00 
  10075f:	66 2e 0f 1f 84 00 00 	nopw   %cs:0x0(%rax,%rax,1)
  100766:	00 00 00 
  100769:	66 2e 0f 1f 84 00 00 	nopw   %cs:0x0(%rax,%rax,1)
  100770:	00 00 00 
  100773:	66 2e 0f 1f 84 00 00 	nopw   %cs:0x0(%rax,%rax,1)
  10077a:	00 00 00 
  10077d:	66 2e 0f 1f 84 00 00 	nopw   %cs:0x0(%rax,%rax,1)
  100784:	00 00 00 
  100787:	66 2e 0f 1f 84 00 00 	nopw   %cs:0x0(%rax,%rax,1)
  10078e:	00 00 00 
  100791:	66 2e 0f 1f 84 00 00 	nopw   %cs:0x0(%rax,%rax,1)
  100798:	00 00 00 
  10079b:	66 2e 0f 1f 84 00 00 	nopw   %cs:0x0(%rax,%rax,1)
  1007a2:	00 00 00 
  1007a5:	66 2e 0f 1f 84 00 00 	nopw   %cs:0x0(%rax,%rax,1)
  1007ac:	00 00 00 
  1007af:	66 2e 0f 1f 84 00 00 	nopw   %cs:0x0(%rax,%rax,1)
  1007b6:	00 00 00 
  1007b9:	66 2e 0f 1f 84 00 00 	nopw   %cs:0x0(%rax,%rax,1)
  1007c0:	00 00 00 
  1007c3:	66 2e 0f 1f 84 00 00 	nopw   %cs:0x0(%rax,%rax,1)
  1007ca:	00 00 00 
  1007cd:	66 2e 0f 1f 84 00 00 	nopw   %cs:0x0(%rax,%rax,1)
  1007d4:	00 00 00 
  1007d7:	66 2e 0f 1f 84 00 00 	nopw   %cs:0x0(%rax,%rax,1)
  1007de:	00 00 00 
  1007e1:	66 2e 0f 1f 84 00 00 	nopw   %cs:0x0(%rax,%rax,1)
  1007e8:	00 00 00 
  1007eb:	66 2e 0f 1f 84 00 00 	nopw   %cs:0x0(%rax,%rax,1)
  1007f2:	00 00 00 
  1007f5:	66 2e 0f 1f 84 00 00 	nopw   %cs:0x0(%rax,%rax,1)
  1007fc:	00 00 00 
  1007ff:	66 2e 0f 1f 84 00 00 	nopw   %cs:0x0(%rax,%rax,1)
  100806:	00 00 00 
  100809:	66 2e 0f 1f 84 00 00 	nopw   %cs:0x0(%rax,%rax,1)
  100810:	00 00 00 
  100813:	66 2e 0f 1f 84 00 00 	nopw   %cs:0x0(%rax,%rax,1)
  10081a:	00 00 00 
  10081d:	66 2e 0f 1f 84 00 00 	nopw   %cs:0x0(%rax,%rax,1)
  100824:	00 00 00 
  100827:	66 2e 0f 1f 84 00 00 	nopw   %cs:0x0(%rax,%rax,1)
  10082e:	00 00 00 
  100831:	66 2e 0f 1f 84 00 00 	nopw   %cs:0x0(%rax,%rax,1)
  100838:	00 00 00 
  10083b:	66 2e 0f 1f 84 00 00 	nopw   %cs:0x0(%rax,%rax,1)
  100842:	00 00 00 
  100845:	66 2e 0f 1f 84 00 00 	nopw   %cs:0x0(%rax,%rax,1)
  10084c:	00 00 00 
  10084f:	66 2e 0f 1f 84 00 00 	nopw   %cs:0x0(%rax,%rax,1)
  100856:	00 00 00 
  100859:	66 2e 0f 1f 84 00 00 	nopw   %cs:0x0(%rax,%rax,1)
  100860:	00 00 00 
  100863:	66 2e 0f 1f 84 00 00 	nopw   %cs:0x0(%rax,%rax,1)
  10086a:	00 00 00 
  10086d:	66 2e 0f 1f 84 00 00 	nopw   %cs:0x0(%rax,%rax,1)
  100874:	00 00 00 
  100877:	66 2e 0f 1f 84 00 00 	nopw   %cs:0x0(%rax,%rax,1)
  10087e:	00 00 00 
  100881:	66 2e 0f 1f 84 00 00 	nopw   %cs:0x0(%rax,%rax,1)
  100888:	00 00 00 
  10088b:	66 2e 0f 1f 84 00 00 	nopw   %cs:0x0(%rax,%rax,1)
  100892:	00 00 00 
  100895:	66 2e 0f 1f 84 00 00 	nopw   %cs:0x0(%rax,%rax,1)
  10089c:	00 00 00 
  10089f:	66 2e 0f 1f 84 00 00 	nopw   %cs:0x0(%rax,%rax,1)
  1008a6:	00 00 00 
  1008a9:	66 2e 0f 1f 84 00 00 	nopw   %cs:0x0(%rax,%rax,1)
  1008b0:	00 00 00 
  1008b3:	66 2e 0f 1f 84 00 00 	nopw   %cs:0x0(%rax,%rax,1)
  1008ba:	00 00 00 
  1008bd:	66 2e 0f 1f 84 00 00 	nopw   %cs:0x0(%rax,%rax,1)
  1008c4:	00 00 00 
  1008c7:	66 2e 0f 1f 84 00 00 	nopw   %cs:0x0(%rax,%rax,1)
  1008ce:	00 00 00 
  1008d1:	66 2e 0f 1f 84 00 00 	nopw   %cs:0x0(%rax,%rax,1)
  1008d8:	00 00 00 
  1008db:	66 2e 0f 1f 84 00 00 	nopw   %cs:0x0(%rax,%rax,1)
  1008e2:	00 00 00 
  1008e5:	66 2e 0f 1f 84 00 00 	nopw   %cs:0x0(%rax,%rax,1)
  1008ec:	00 00 00 
  1008ef:	66 2e 0f 1f 84 00 00 	nopw   %cs:0x0(%rax,%rax,1)
  1008f6:	00 00 00 
  1008f9:	66 2e 0f 1f 84 00 00 	nopw   %cs:0x0(%rax,%rax,1)
  100900:	00 00 00 
  100903:	66 2e 0f 1f 84 00 00 	nopw   %cs:0x0(%rax,%rax,1)
  10090a:	00 00 00 
  10090d:	66 2e 0f 1f 84 00 00 	nopw   %cs:0x0(%rax,%rax,1)
  100914:	00 00 00 
  100917:	66 2e 0f 1f 84 00 00 	nopw   %cs:0x0(%rax,%rax,1)
  10091e:	00 00 00 
  100921:	66 2e 0f 1f 84 00 00 	nopw   %cs:0x0(%rax,%rax,1)
  100928:	00 00 00 
  10092b:	66 2e 0f 1f 84 00 00 	nopw   %cs:0x0(%rax,%rax,1)
  100932:	00 00 00 
  100935:	66 2e 0f 1f 84 00 00 	nopw   %cs:0x0(%rax,%rax,1)
  10093c:	00 00 00 
  10093f:	66 2e 0f 1f 84 00 00 	nopw   %cs:0x0(%rax,%rax,1)
  100946:	00 00 00 
  100949:	66 2e 0f 1f 84 00 00 	nopw   %cs:0x0(%rax,%rax,1)
  100950:	00 00 00 
  100953:	66 2e 0f 1f 84 00 00 	nopw   %cs:0x0(%rax,%rax,1)
  10095a:	00 00 00 
  10095d:	66 2e 0f 1f 84 00 00 	nopw   %cs:0x0(%rax,%rax,1)
  100964:	00 00 00 
  100967:	66 2e 0f 1f 84 00 00 	nopw   %cs:0x0(%rax,%rax,1)
  10096e:	00 00 00 
  100971:	66 2e 0f 1f 84 00 00 	nopw   %cs:0x0(%rax,%rax,1)
  100978:	00 00 00 
  10097b:	66 2e 0f 1f 84 00 00 	nopw   %cs:0x0(%rax,%rax,1)
  100982:	00 00 00 
  100985:	66 2e 0f 1f 84 00 00 	nopw   %cs:0x0(%rax,%rax,1)
  10098c:	00 00 00 
  10098f:	66 2e 0f 1f 84 00 00 	nopw   %cs:0x0(%rax,%rax,1)
  100996:	00 00 00 
  100999:	66 2e 0f 1f 84 00 00 	nopw   %cs:0x0(%rax,%rax,1)
  1009a0:	00 00 00 
  1009a3:	66 2e 0f 1f 84 00 00 	nopw   %cs:0x0(%rax,%rax,1)
  1009aa:	00 00 00 
  1009ad:	66 2e 0f 1f 84 00 00 	nopw   %cs:0x0(%rax,%rax,1)
  1009b4:	00 00 00 
  1009b7:	66 2e 0f 1f 84 00 00 	nopw   %cs:0x0(%rax,%rax,1)
  1009be:	00 00 00 
  1009c1:	66 2e 0f 1f 84 00 00 	nopw   %cs:0x0(%rax,%rax,1)
  1009c8:	00 00 00 
  1009cb:	66 2e 0f 1f 84 00 00 	nopw   %cs:0x0(%rax,%rax,1)
  1009d2:	00 00 00 
  1009d5:	66 2e 0f 1f 84 00 00 	nopw   %cs:0x0(%rax,%rax,1)
  1009dc:	00 00 00 
  1009df:	66 2e 0f 1f 84 00 00 	nopw   %cs:0x0(%rax,%rax,1)
  1009e6:	00 00 00 
  1009e9:	66 2e 0f 1f 84 00 00 	nopw   %cs:0x0(%rax,%rax,1)
  1009f0:	00 00 00 
  1009f3:	66 2e 0f 1f 84 00 00 	nopw   %cs:0x0(%rax,%rax,1)
  1009fa:	00 00 00 
  1009fd:	66 2e 0f 1f 84 00 00 	nopw   %cs:0x0(%rax,%rax,1)
  100a04:	00 00 00 
  100a07:	66 2e 0f 1f 84 00 00 	nopw   %cs:0x0(%rax,%rax,1)
  100a0e:	00 00 00 
  100a11:	66 2e 0f 1f 84 00 00 	nopw   %cs:0x0(%rax,%rax,1)
  100a18:	00 00 00 
  100a1b:	66 2e 0f 1f 84 00 00 	nopw   %cs:0x0(%rax,%rax,1)
  100a22:	00 00 00 
  100a25:	66 2e 0f 1f 84 00 00 	nopw   %cs:0x0(%rax,%rax,1)
  100a2c:	00 00 00 
  100a2f:	66 2e 0f 1f 84 00 00 	nopw   %cs:0x0(%rax,%rax,1)
  100a36:	00 00 00 
  100a39:	66 2e 0f 1f 84 00 00 	nopw   %cs:0x0(%rax,%rax,1)
  100a40:	00 00 00 
  100a43:	66 2e 0f 1f 84 00 00 	nopw   %cs:0x0(%rax,%rax,1)
  100a4a:	00 00 00 
  100a4d:	66 2e 0f 1f 84 00 00 	nopw   %cs:0x0(%rax,%rax,1)
  100a54:	00 00 00 
  100a57:	66 2e 0f 1f 84 00 00 	nopw   %cs:0x0(%rax,%rax,1)
  100a5e:	00 00 00 
  100a61:	66 2e 0f 1f 84 00 00 	nopw   %cs:0x0(%rax,%rax,1)
  100a68:	00 00 00 
  100a6b:	66 2e 0f 1f 84 00 00 	nopw   %cs:0x0(%rax,%rax,1)
  100a72:	00 00 00 
  100a75:	66 2e 0f 1f 84 00 00 	nopw   %cs:0x0(%rax,%rax,1)
  100a7c:	00 00 00 
  100a7f:	66 2e 0f 1f 84 00 00 	nopw   %cs:0x0(%rax,%rax,1)
  100a86:	00 00 00 
  100a89:	66 2e 0f 1f 84 00 00 	nopw   %cs:0x0(%rax,%rax,1)
  100a90:	00 00 00 
  100a93:	66 2e 0f 1f 84 00 00 	nopw   %cs:0x0(%rax,%rax,1)
  100a9a:	00 00 00 
  100a9d:	66 2e 0f 1f 84 00 00 	nopw   %cs:0x0(%rax,%rax,1)
  100aa4:	00 00 00 
  100aa7:	66 2e 0f 1f 84 00 00 	nopw   %cs:0x0(%rax,%rax,1)
  100aae:	00 00 00 
  100ab1:	66 2e 0f 1f 84 00 00 	nopw   %cs:0x0(%rax,%rax,1)
  100ab8:	00 00 00 
  100abb:	66 2e 0f 1f 84 00 00 	nopw   %cs:0x0(%rax,%rax,1)
  100ac2:	00 00 00 
  100ac5:	66 2e 0f 1f 84 00 00 	nopw   %cs:0x0(%rax,%rax,1)
  100acc:	00 00 00 
  100acf:	66 2e 0f 1f 84 00 00 	nopw   %cs:0x0(%rax,%rax,1)
  100ad6:	00 00 00 
  100ad9:	66 2e 0f 1f 84 00 00 	nopw   %cs:0x0(%rax,%rax,1)
  100ae0:	00 00 00 
  100ae3:	66 2e 0f 1f 84 00 00 	nopw   %cs:0x0(%rax,%rax,1)
  100aea:	00 00 00 
  100aed:	66 2e 0f 1f 84 00 00 	nopw   %cs:0x0(%rax,%rax,1)
  100af4:	00 00 00 
  100af7:	66 2e 0f 1f 84 00 00 	nopw   %cs:0x0(%rax,%rax,1)
  100afe:	00 00 00 
  100b01:	66 2e 0f 1f 84 00 00 	nopw   %cs:0x0(%rax,%rax,1)
  100b08:	00 00 00 
  100b0b:	66 2e 0f 1f 84 00 00 	nopw   %cs:0x0(%rax,%rax,1)
  100b12:	00 00 00 
  100b15:	66 2e 0f 1f 84 00 00 	nopw   %cs:0x0(%rax,%rax,1)
  100b1c:	00 00 00 
  100b1f:	66 2e 0f 1f 84 00 00 	nopw   %cs:0x0(%rax,%rax,1)
  100b26:	00 00 00 
  100b29:	66 2e 0f 1f 84 00 00 	nopw   %cs:0x0(%rax,%rax,1)
  100b30:	00 00 00 
  100b33:	66 2e 0f 1f 84 00 00 	nopw   %cs:0x0(%rax,%rax,1)
  100b3a:	00 00 00 
  100b3d:	66 2e 0f 1f 84 00 00 	nopw   %cs:0x0(%rax,%rax,1)
  100b44:	00 00 00 
  100b47:	66 2e 0f 1f 84 00 00 	nopw   %cs:0x0(%rax,%rax,1)
  100b4e:	00 00 00 
  100b51:	66 2e 0f 1f 84 00 00 	nopw   %cs:0x0(%rax,%rax,1)
  100b58:	00 00 00 
  100b5b:	66 2e 0f 1f 84 00 00 	nopw   %cs:0x0(%rax,%rax,1)
  100b62:	00 00 00 
  100b65:	66 2e 0f 1f 84 00 00 	nopw   %cs:0x0(%rax,%rax,1)
  100b6c:	00 00 00 
  100b6f:	66 2e 0f 1f 84 00 00 	nopw   %cs:0x0(%rax,%rax,1)
  100b76:	00 00 00 
  100b79:	66 2e 0f 1f 84 00 00 	nopw   %cs:0x0(%rax,%rax,1)
  100b80:	00 00 00 
  100b83:	66 2e 0f 1f 84 00 00 	nopw   %cs:0x0(%rax,%rax,1)
  100b8a:	00 00 00 
  100b8d:	66 2e 0f 1f 84 00 00 	nopw   %cs:0x0(%rax,%rax,1)
  100b94:	00 00 00 
  100b97:	66 2e 0f 1f 84 00 00 	nopw   %cs:0x0(%rax,%rax,1)
  100b9e:	00 00 00 
  100ba1:	66 2e 0f 1f 84 00 00 	nopw   %cs:0x0(%rax,%rax,1)
  100ba8:	00 00 00 
  100bab:	66 2e 0f 1f 84 00 00 	nopw   %cs:0x0(%rax,%rax,1)
  100bb2:	00 00 00 
  100bb5:	66 2e 0f 1f 84 00 00 	nopw   %cs:0x0(%rax,%rax,1)
  100bbc:	00 00 00 
  100bbf:	66 2e 0f 1f 84 00 00 	nopw   %cs:0x0(%rax,%rax,1)
  100bc6:	00 00 00 
  100bc9:	66 2e 0f 1f 84 00 00 	nopw   %cs:0x0(%rax,%rax,1)
  100bd0:	00 00 00 
  100bd3:	66 2e 0f 1f 84 00 00 	nopw   %cs:0x0(%rax,%rax,1)
  100bda:	00 00 00 
  100bdd:	66 2e 0f 1f 84 00 00 	nopw   %cs:0x0(%rax,%rax,1)
  100be4:	00 00 00 
  100be7:	66 2e 0f 1f 84 00 00 	nopw   %cs:0x0(%rax,%rax,1)
  100bee:	00 00 00 
  100bf1:	66 2e 0f 1f 84 00 00 	nopw   %cs:0x0(%rax,%rax,1)
  100bf8:	00 00 00 
  100bfb:	66 2e 0f 1f 84 00 00 	nopw   %cs:0x0(%rax,%rax,1)
  100c02:	00 00 00 
  100c05:	66 2e 0f 1f 84 00 00 	nopw   %cs:0x0(%rax,%rax,1)
  100c0c:	00 00 00 
  100c0f:	66 2e 0f 1f 84 00 00 	nopw   %cs:0x0(%rax,%rax,1)
  100c16:	00 00 00 
  100c19:	66 2e 0f 1f 84 00 00 	nopw   %cs:0x0(%rax,%rax,1)
  100c20:	00 00 00 
  100c23:	66 2e 0f 1f 84 00 00 	nopw   %cs:0x0(%rax,%rax,1)
  100c2a:	00 00 00 
  100c2d:	66 2e 0f 1f 84 00 00 	nopw   %cs:0x0(%rax,%rax,1)
  100c34:	00 00 00 
  100c37:	66 2e 0f 1f 84 00 00 	nopw   %cs:0x0(%rax,%rax,1)
  100c3e:	00 00 00 
  100c41:	66 2e 0f 1f 84 00 00 	nopw   %cs:0x0(%rax,%rax,1)
  100c48:	00 00 00 
  100c4b:	66 2e 0f 1f 84 00 00 	nopw   %cs:0x0(%rax,%rax,1)
  100c52:	00 00 00 
  100c55:	66 2e 0f 1f 84 00 00 	nopw   %cs:0x0(%rax,%rax,1)
  100c5c:	00 00 00 
  100c5f:	66 2e 0f 1f 84 00 00 	nopw   %cs:0x0(%rax,%rax,1)
  100c66:	00 00 00 
  100c69:	66 2e 0f 1f 84 00 00 	nopw   %cs:0x0(%rax,%rax,1)
  100c70:	00 00 00 
  100c73:	66 2e 0f 1f 84 00 00 	nopw   %cs:0x0(%rax,%rax,1)
  100c7a:	00 00 00 
  100c7d:	66 2e 0f 1f 84 00 00 	nopw   %cs:0x0(%rax,%rax,1)
  100c84:	00 00 00 
  100c87:	66 2e 0f 1f 84 00 00 	nopw   %cs:0x0(%rax,%rax,1)
  100c8e:	00 00 00 
  100c91:	66 2e 0f 1f 84 00 00 	nopw   %cs:0x0(%rax,%rax,1)
  100c98:	00 00 00 
  100c9b:	66 2e 0f 1f 84 00 00 	nopw   %cs:0x0(%rax,%rax,1)
  100ca2:	00 00 00 
  100ca5:	66 2e 0f 1f 84 00 00 	nopw   %cs:0x0(%rax,%rax,1)
  100cac:	00 00 00 
  100caf:	66 2e 0f 1f 84 00 00 	nopw   %cs:0x0(%rax,%rax,1)
  100cb6:	00 00 00 
  100cb9:	66 2e 0f 1f 84 00 00 	nopw   %cs:0x0(%rax,%rax,1)
  100cc0:	00 00 00 
  100cc3:	66 2e 0f 1f 84 00 00 	nopw   %cs:0x0(%rax,%rax,1)
  100cca:	00 00 00 
  100ccd:	66 2e 0f 1f 84 00 00 	nopw   %cs:0x0(%rax,%rax,1)
  100cd4:	00 00 00 
  100cd7:	66 2e 0f 1f 84 00 00 	nopw   %cs:0x0(%rax,%rax,1)
  100cde:	00 00 00 
  100ce1:	66 2e 0f 1f 84 00 00 	nopw   %cs:0x0(%rax,%rax,1)
  100ce8:	00 00 00 
  100ceb:	66 2e 0f 1f 84 00 00 	nopw   %cs:0x0(%rax,%rax,1)
  100cf2:	00 00 00 
  100cf5:	66 2e 0f 1f 84 00 00 	nopw   %cs:0x0(%rax,%rax,1)
  100cfc:	00 00 00 
  100cff:	66 2e 0f 1f 84 00 00 	nopw   %cs:0x0(%rax,%rax,1)
  100d06:	00 00 00 
  100d09:	66 2e 0f 1f 84 00 00 	nopw   %cs:0x0(%rax,%rax,1)
  100d10:	00 00 00 
  100d13:	66 2e 0f 1f 84 00 00 	nopw   %cs:0x0(%rax,%rax,1)
  100d1a:	00 00 00 
  100d1d:	66 2e 0f 1f 84 00 00 	nopw   %cs:0x0(%rax,%rax,1)
  100d24:	00 00 00 
  100d27:	66 2e 0f 1f 84 00 00 	nopw   %cs:0x0(%rax,%rax,1)
  100d2e:	00 00 00 
  100d31:	66 2e 0f 1f 84 00 00 	nopw   %cs:0x0(%rax,%rax,1)
  100d38:	00 00 00 
  100d3b:	66 2e 0f 1f 84 00 00 	nopw   %cs:0x0(%rax,%rax,1)
  100d42:	00 00 00 
  100d45:	66 2e 0f 1f 84 00 00 	nopw   %cs:0x0(%rax,%rax,1)
  100d4c:	00 00 00 
  100d4f:	66 2e 0f 1f 84 00 00 	nopw   %cs:0x0(%rax,%rax,1)
  100d56:	00 00 00 
  100d59:	66 2e 0f 1f 84 00 00 	nopw   %cs:0x0(%rax,%rax,1)
  100d60:	00 00 00 
  100d63:	66 2e 0f 1f 84 00 00 	nopw   %cs:0x0(%rax,%rax,1)
  100d6a:	00 00 00 
  100d6d:	66 2e 0f 1f 84 00 00 	nopw   %cs:0x0(%rax,%rax,1)
  100d74:	00 00 00 
  100d77:	66 2e 0f 1f 84 00 00 	nopw   %cs:0x0(%rax,%rax,1)
  100d7e:	00 00 00 
  100d81:	66 2e 0f 1f 84 00 00 	nopw   %cs:0x0(%rax,%rax,1)
  100d88:	00 00 00 
  100d8b:	66 2e 0f 1f 84 00 00 	nopw   %cs:0x0(%rax,%rax,1)
  100d92:	00 00 00 
  100d95:	66 2e 0f 1f 84 00 00 	nopw   %cs:0x0(%rax,%rax,1)
  100d9c:	00 00 00 
  100d9f:	66 2e 0f 1f 84 00 00 	nopw   %cs:0x0(%rax,%rax,1)
  100da6:	00 00 00 
  100da9:	66 2e 0f 1f 84 00 00 	nopw   %cs:0x0(%rax,%rax,1)
  100db0:	00 00 00 
  100db3:	66 2e 0f 1f 84 00 00 	nopw   %cs:0x0(%rax,%rax,1)
  100dba:	00 00 00 
  100dbd:	66 2e 0f 1f 84 00 00 	nopw   %cs:0x0(%rax,%rax,1)
  100dc4:	00 00 00 
  100dc7:	66 2e 0f 1f 84 00 00 	nopw   %cs:0x0(%rax,%rax,1)
  100dce:	00 00 00 
  100dd1:	66 2e 0f 1f 84 00 00 	nopw   %cs:0x0(%rax,%rax,1)
  100dd8:	00 00 00 
  100ddb:	66 2e 0f 1f 84 00 00 	nopw   %cs:0x0(%rax,%rax,1)
  100de2:	00 00 00 
  100de5:	66 2e 0f 1f 84 00 00 	nopw   %cs:0x0(%rax,%rax,1)
  100dec:	00 00 00 
  100def:	66 2e 0f 1f 84 00 00 	nopw   %cs:0x0(%rax,%rax,1)
  100df6:	00 00 00 
  100df9:	66 2e 0f 1f 84 00 00 	nopw   %cs:0x0(%rax,%rax,1)
  100e00:	00 00 00 
  100e03:	66 2e 0f 1f 84 00 00 	nopw   %cs:0x0(%rax,%rax,1)
  100e0a:	00 00 00 
  100e0d:	66 2e 0f 1f 84 00 00 	nopw   %cs:0x0(%rax,%rax,1)
  100e14:	00 00 00 
  100e17:	66 2e 0f 1f 84 00 00 	nopw   %cs:0x0(%rax,%rax,1)
  100e1e:	00 00 00 
  100e21:	66 2e 0f 1f 84 00 00 	nopw   %cs:0x0(%rax,%rax,1)
  100e28:	00 00 00 
  100e2b:	66 2e 0f 1f 84 00 00 	nopw   %cs:0x0(%rax,%rax,1)
  100e32:	00 00 00 
  100e35:	66 2e 0f 1f 84 00 00 	nopw   %cs:0x0(%rax,%rax,1)
  100e3c:	00 00 00 
  100e3f:	66 2e 0f 1f 84 00 00 	nopw   %cs:0x0(%rax,%rax,1)
  100e46:	00 00 00 
  100e49:	66 2e 0f 1f 84 00 00 	nopw   %cs:0x0(%rax,%rax,1)
  100e50:	00 00 00 
  100e53:	66 2e 0f 1f 84 00 00 	nopw   %cs:0x0(%rax,%rax,1)
  100e5a:	00 00 00 
  100e5d:	66 2e 0f 1f 84 00 00 	nopw   %cs:0x0(%rax,%rax,1)
  100e64:	00 00 00 
  100e67:	66 2e 0f 1f 84 00 00 	nopw   %cs:0x0(%rax,%rax,1)
  100e6e:	00 00 00 
  100e71:	66 2e 0f 1f 84 00 00 	nopw   %cs:0x0(%rax,%rax,1)
  100e78:	00 00 00 
  100e7b:	66 2e 0f 1f 84 00 00 	nopw   %cs:0x0(%rax,%rax,1)
  100e82:	00 00 00 
  100e85:	66 2e 0f 1f 84 00 00 	nopw   %cs:0x0(%rax,%rax,1)
  100e8c:	00 00 00 
  100e8f:	66 2e 0f 1f 84 00 00 	nopw   %cs:0x0(%rax,%rax,1)
  100e96:	00 00 00 
  100e99:	66 2e 0f 1f 84 00 00 	nopw   %cs:0x0(%rax,%rax,1)
  100ea0:	00 00 00 
  100ea3:	66 2e 0f 1f 84 00 00 	nopw   %cs:0x0(%rax,%rax,1)
  100eaa:	00 00 00 
  100ead:	66 2e 0f 1f 84 00 00 	nopw   %cs:0x0(%rax,%rax,1)
  100eb4:	00 00 00 
  100eb7:	66 2e 0f 1f 84 00 00 	nopw   %cs:0x0(%rax,%rax,1)
  100ebe:	00 00 00 
  100ec1:	66 2e 0f 1f 84 00 00 	nopw   %cs:0x0(%rax,%rax,1)
  100ec8:	00 00 00 
  100ecb:	66 2e 0f 1f 84 00 00 	nopw   %cs:0x0(%rax,%rax,1)
  100ed2:	00 00 00 
  100ed5:	66 2e 0f 1f 84 00 00 	nopw   %cs:0x0(%rax,%rax,1)
  100edc:	00 00 00 
  100edf:	66 2e 0f 1f 84 00 00 	nopw   %cs:0x0(%rax,%rax,1)
  100ee6:	00 00 00 
  100ee9:	66 2e 0f 1f 84 00 00 	nopw   %cs:0x0(%rax,%rax,1)
  100ef0:	00 00 00 
  100ef3:	66 2e 0f 1f 84 00 00 	nopw   %cs:0x0(%rax,%rax,1)
  100efa:	00 00 00 
  100efd:	66 2e 0f 1f 84 00 00 	nopw   %cs:0x0(%rax,%rax,1)
  100f04:	00 00 00 
  100f07:	66 2e 0f 1f 84 00 00 	nopw   %cs:0x0(%rax,%rax,1)
  100f0e:	00 00 00 
  100f11:	66 2e 0f 1f 84 00 00 	nopw   %cs:0x0(%rax,%rax,1)
  100f18:	00 00 00 
  100f1b:	66 2e 0f 1f 84 00 00 	nopw   %cs:0x0(%rax,%rax,1)
  100f22:	00 00 00 
  100f25:	66 2e 0f 1f 84 00 00 	nopw   %cs:0x0(%rax,%rax,1)
  100f2c:	00 00 00 
  100f2f:	66 2e 0f 1f 84 00 00 	nopw   %cs:0x0(%rax,%rax,1)
  100f36:	00 00 00 
  100f39:	66 2e 0f 1f 84 00 00 	nopw   %cs:0x0(%rax,%rax,1)
  100f40:	00 00 00 
  100f43:	66 2e 0f 1f 84 00 00 	nopw   %cs:0x0(%rax,%rax,1)
  100f4a:	00 00 00 
  100f4d:	66 2e 0f 1f 84 00 00 	nopw   %cs:0x0(%rax,%rax,1)
  100f54:	00 00 00 
  100f57:	66 2e 0f 1f 84 00 00 	nopw   %cs:0x0(%rax,%rax,1)
  100f5e:	00 00 00 
  100f61:	66 2e 0f 1f 84 00 00 	nopw   %cs:0x0(%rax,%rax,1)
  100f68:	00 00 00 
  100f6b:	66 2e 0f 1f 84 00 00 	nopw   %cs:0x0(%rax,%rax,1)
  100f72:	00 00 00 
  100f75:	66 2e 0f 1f 84 00 00 	nopw   %cs:0x0(%rax,%rax,1)
  100f7c:	00 00 00 
  100f7f:	66 2e 0f 1f 84 00 00 	nopw   %cs:0x0(%rax,%rax,1)
  100f86:	00 00 00 
  100f89:	66 2e 0f 1f 84 00 00 	nopw   %cs:0x0(%rax,%rax,1)
  100f90:	00 00 00 
  100f93:	66 2e 0f 1f 84 00 00 	nopw   %cs:0x0(%rax,%rax,1)
  100f9a:	00 00 00 
  100f9d:	66 2e 0f 1f 84 00 00 	nopw   %cs:0x0(%rax,%rax,1)
  100fa4:	00 00 00 
  100fa7:	66 2e 0f 1f 84 00 00 	nopw   %cs:0x0(%rax,%rax,1)
  100fae:	00 00 00 
  100fb1:	66 2e 0f 1f 84 00 00 	nopw   %cs:0x0(%rax,%rax,1)
  100fb8:	00 00 00 
  100fbb:	66 2e 0f 1f 84 00 00 	nopw   %cs:0x0(%rax,%rax,1)
  100fc2:	00 00 00 
  100fc5:	66 2e 0f 1f 84 00 00 	nopw   %cs:0x0(%rax,%rax,1)
  100fcc:	00 00 00 
  100fcf:	66 2e 0f 1f 84 00 00 	nopw   %cs:0x0(%rax,%rax,1)
  100fd6:	00 00 00 
  100fd9:	66 2e 0f 1f 84 00 00 	nopw   %cs:0x0(%rax,%rax,1)
  100fe0:	00 00 00 
  100fe3:	66 2e 0f 1f 84 00 00 	nopw   %cs:0x0(%rax,%rax,1)
  100fea:	00 00 00 
  100fed:	66 2e 0f 1f 84 00 00 	nopw   %cs:0x0(%rax,%rax,1)
  100ff4:	00 00 00 
  100ff7:	66 0f 1f 84 00 00 00 	nopw   0x0(%rax,%rax,1)
  100ffe:	00 00 

0000000000101000 <gdt_64>:
	...
  101008:	ff                   	(bad)  
  101009:	ff 00                	incl   (%rax)
  10100b:	00 00                	add    %al,(%rax)
  10100d:	9a                   	(bad)  
  10100e:	af                   	scas   %es:(%rdi),%eax
  10100f:	00 ff                	add    %bh,%bh
  101011:	ff 00                	incl   (%rax)
  101013:	00 00                	add    %al,(%rax)
  101015:	92                   	xchg   %eax,%edx
  101016:	cf                   	iret   
	...

0000000000101018 <gdtdesc_64>:
  101018:	17                   	(bad)  
  101019:	00 00                	add    %al,(%rax)
  10101b:	10 10                	adc    %dl,(%rax)
	...

0000000000102000 <pml4phys>:
	...

0000000000103000 <pdpt1>:
	...

0000000000104000 <pdpt2>:
	...

0000000000105000 <pde1>:
	...

0000000000106000 <pde2>:
	...

0000000000107000 <multiboot_info>:
  107000:	00 00                	add    %al,(%rax)
	...

Disassembly of section .text:

0000008004200000 <_start+0x8003fffff4>:
  8004200000:	02 b0 ad 1b 00 00    	add    0x1bad(%rax),%dh
  8004200006:	00 00                	add    %al,(%rax)
  8004200008:	fe 4f 52             	decb   0x52(%rdi)
  800420000b:	e4 48                	in     $0x48,%al

000000800420000c <entry>:
entry:

/* .globl _back_from_head64 */
/* _back_from_head64: */

    movabs   $gdtdesc_64,%rax
  800420000c:	48 b8 38 20 22 04 80 	movabs $0x8004222038,%rax
  8004200013:	00 00 00 
    lgdt     (%rax)
  8004200016:	0f 01 10             	lgdt   (%rax)
    movw    $DATA_SEL,%ax
  8004200019:	66 b8 10 00          	mov    $0x10,%ax
    movw    %ax,%ds
  800420001d:	8e d8                	mov    %eax,%ds
    movw    %ax,%ss
  800420001f:	8e d0                	mov    %eax,%ss
    movw    %ax,%fs
  8004200021:	8e e0                	mov    %eax,%fs
    movw    %ax,%gs
  8004200023:	8e e8                	mov    %eax,%gs
    movw    %ax,%es
  8004200025:	8e c0                	mov    %eax,%es
    pushq   $CODE_SEL
  8004200027:	6a 08                	pushq  $0x8
    movabs  $relocated,%rax
  8004200029:	48 b8 36 00 20 04 80 	movabs $0x8004200036,%rax
  8004200030:	00 00 00 
    pushq   %rax
  8004200033:	50                   	push   %rax
    lretq
  8004200034:	48 cb                	lretq  

0000008004200036 <relocated>:
relocated:

	# Clear the frame pointer register (RBP)
	# so that once we get into debugging C code,
	# stack backtraces will be terminated properly.
	movq	$0x0,%rbp			# nuke frame pointer
  8004200036:	48 c7 c5 00 00 00 00 	mov    $0x0,%rbp

	# Set the stack pointer
	movabs	$(bootstacktop),%rax
  800420003d:	48 b8 00 20 22 04 80 	movabs $0x8004222000,%rax
  8004200044:	00 00 00 
	movq  %rax,%rsp
  8004200047:	48 89 c4             	mov    %rax,%rsp

	# now to C code
    movabs $i386_init, %rax
  800420004a:	48 b8 58 00 20 04 80 	movabs $0x8004200058,%rax
  8004200051:	00 00 00 
	call *%rax
  8004200054:	ff d0                	callq  *%rax

0000008004200056 <spin>:

	# Should never get here, but in case we do, just spin.
spin:	jmp	spin
  8004200056:	eb fe                	jmp    8004200056 <spin>

0000008004200058 <i386_init>:



void
i386_init(void)
{
  8004200058:	55                   	push   %rbp
  8004200059:	48 89 e5             	mov    %rsp,%rbp
	extern char edata[], end[];

	// Before doing anything else, complete the ELF loading process.
	// Clear the uninitialized global data (BSS) section of our program.
	// This ensures that all static/global variables start out zero.
	memset(edata, 0, end - edata);
  800420005c:	48 ba 80 3d 22 04 80 	movabs $0x8004223d80,%rdx
  8004200063:	00 00 00 
  8004200066:	48 b8 a0 26 22 04 80 	movabs $0x80042226a0,%rax
  800420006d:	00 00 00 
  8004200070:	48 29 c2             	sub    %rax,%rdx
  8004200073:	48 89 d0             	mov    %rdx,%rax
  8004200076:	48 89 c2             	mov    %rax,%rdx
  8004200079:	be 00 00 00 00       	mov    $0x0,%esi
  800420007e:	48 bf a0 26 22 04 80 	movabs $0x80042226a0,%rdi
  8004200085:	00 00 00 
  8004200088:	48 b8 a0 7f 20 04 80 	movabs $0x8004207fa0,%rax
  800420008f:	00 00 00 
  8004200092:	ff d0                	callq  *%rax

	// Initialize the console.
	// Can't call cprintf until after we do this!
	cons_init();
  8004200094:	48 b8 76 0d 20 04 80 	movabs $0x8004200d76,%rax
  800420009b:	00 00 00 
  800420009e:	ff d0                	callq  *%rax

	cprintf("6828 decimal is %o octal!\n", 6828);
  80042000a0:	be ac 1a 00 00       	mov    $0x1aac,%esi
  80042000a5:	48 bf a0 e3 20 04 80 	movabs $0x800420e3a0,%rdi
  80042000ac:	00 00 00 
  80042000af:	b8 00 00 00 00       	mov    $0x0,%eax
  80042000b4:	48 ba 50 64 20 04 80 	movabs $0x8004206450,%rdx
  80042000bb:	00 00 00 
  80042000be:	ff d2                	callq  *%rdx

	extern char end[];
	end_debug = read_section_headers((0x10000+KERNBASE), (uintptr_t)end);
  80042000c0:	48 b8 80 3d 22 04 80 	movabs $0x8004223d80,%rax
  80042000c7:	00 00 00 
  80042000ca:	48 89 c6             	mov    %rax,%rsi
  80042000cd:	48 bf 00 00 01 04 80 	movabs $0x8004010000,%rdi
  80042000d4:	00 00 00 
  80042000d7:	48 b8 c0 d9 20 04 80 	movabs $0x800420d9c0,%rax
  80042000de:	00 00 00 
  80042000e1:	ff d0                	callq  *%rax
  80042000e3:	48 ba 68 2d 22 04 80 	movabs $0x8004222d68,%rdx
  80042000ea:	00 00 00 
  80042000ed:	48 89 02             	mov    %rax,(%rdx)

	// Lab 2 memory management initialization functions
	x64_vm_init();
  80042000f0:	b8 00 00 00 00       	mov    $0x0,%eax
  80042000f5:	48 ba 94 1f 20 04 80 	movabs $0x8004201f94,%rdx
  80042000fc:	00 00 00 
  80042000ff:	ff d2                	callq  *%rdx



	// Drop into the kernel monitor.
	while (1)
		monitor(NULL);
  8004200101:	bf 00 00 00 00       	mov    $0x0,%edi
  8004200106:	48 b8 ef 13 20 04 80 	movabs $0x80042013ef,%rax
  800420010d:	00 00 00 
  8004200110:	ff d0                	callq  *%rax
  8004200112:	eb ed                	jmp    8004200101 <i386_init+0xa9>

0000008004200114 <_panic>:
 * Panic is called on unresolvable fatal errors.
 * It prints "panic: mesg", and then enters the kernel monitor.
 */
void
_panic(const char *file, int line, const char *fmt,...)
{
  8004200114:	55                   	push   %rbp
  8004200115:	48 89 e5             	mov    %rsp,%rbp
  8004200118:	48 81 ec f0 00 00 00 	sub    $0xf0,%rsp
  800420011f:	48 89 bd 28 ff ff ff 	mov    %rdi,-0xd8(%rbp)
  8004200126:	89 b5 24 ff ff ff    	mov    %esi,-0xdc(%rbp)
  800420012c:	48 89 8d 68 ff ff ff 	mov    %rcx,-0x98(%rbp)
  8004200133:	4c 89 85 70 ff ff ff 	mov    %r8,-0x90(%rbp)
  800420013a:	4c 89 8d 78 ff ff ff 	mov    %r9,-0x88(%rbp)
  8004200141:	84 c0                	test   %al,%al
  8004200143:	74 20                	je     8004200165 <_panic+0x51>
  8004200145:	0f 29 45 80          	movaps %xmm0,-0x80(%rbp)
  8004200149:	0f 29 4d 90          	movaps %xmm1,-0x70(%rbp)
  800420014d:	0f 29 55 a0          	movaps %xmm2,-0x60(%rbp)
  8004200151:	0f 29 5d b0          	movaps %xmm3,-0x50(%rbp)
  8004200155:	0f 29 65 c0          	movaps %xmm4,-0x40(%rbp)
  8004200159:	0f 29 6d d0          	movaps %xmm5,-0x30(%rbp)
  800420015d:	0f 29 75 e0          	movaps %xmm6,-0x20(%rbp)
  8004200161:	0f 29 7d f0          	movaps %xmm7,-0x10(%rbp)
  8004200165:	48 89 95 18 ff ff ff 	mov    %rdx,-0xe8(%rbp)
	va_list ap;

	if (panicstr)
  800420016c:	48 b8 70 2d 22 04 80 	movabs $0x8004222d70,%rax
  8004200173:	00 00 00 
  8004200176:	48 8b 00             	mov    (%rax),%rax
  8004200179:	48 85 c0             	test   %rax,%rax
  800420017c:	74 05                	je     8004200183 <_panic+0x6f>
		goto dead;
  800420017e:	e9 a9 00 00 00       	jmpq   800420022c <_panic+0x118>
	panicstr = fmt;
  8004200183:	48 b8 70 2d 22 04 80 	movabs $0x8004222d70,%rax
  800420018a:	00 00 00 
  800420018d:	48 8b 95 18 ff ff ff 	mov    -0xe8(%rbp),%rdx
  8004200194:	48 89 10             	mov    %rdx,(%rax)

	// Be extra sure that the machine is in as reasonable state
	__asm __volatile("cli; cld");
  8004200197:	fa                   	cli    
  8004200198:	fc                   	cld    

	va_start(ap, fmt);
  8004200199:	c7 85 38 ff ff ff 18 	movl   $0x18,-0xc8(%rbp)
  80042001a0:	00 00 00 
  80042001a3:	c7 85 3c ff ff ff 30 	movl   $0x30,-0xc4(%rbp)
  80042001aa:	00 00 00 
  80042001ad:	48 8d 45 10          	lea    0x10(%rbp),%rax
  80042001b1:	48 89 85 40 ff ff ff 	mov    %rax,-0xc0(%rbp)
  80042001b8:	48 8d 85 50 ff ff ff 	lea    -0xb0(%rbp),%rax
  80042001bf:	48 89 85 48 ff ff ff 	mov    %rax,-0xb8(%rbp)
	cprintf("kernel panic at %s:%d: ", file, line);
  80042001c6:	8b 95 24 ff ff ff    	mov    -0xdc(%rbp),%edx
  80042001cc:	48 8b 85 28 ff ff ff 	mov    -0xd8(%rbp),%rax
  80042001d3:	48 89 c6             	mov    %rax,%rsi
  80042001d6:	48 bf bb e3 20 04 80 	movabs $0x800420e3bb,%rdi
  80042001dd:	00 00 00 
  80042001e0:	b8 00 00 00 00       	mov    $0x0,%eax
  80042001e5:	48 b9 50 64 20 04 80 	movabs $0x8004206450,%rcx
  80042001ec:	00 00 00 
  80042001ef:	ff d1                	callq  *%rcx
	vcprintf(fmt, ap);
  80042001f1:	48 8d 95 38 ff ff ff 	lea    -0xc8(%rbp),%rdx
  80042001f8:	48 8b 85 18 ff ff ff 	mov    -0xe8(%rbp),%rax
  80042001ff:	48 89 d6             	mov    %rdx,%rsi
  8004200202:	48 89 c7             	mov    %rax,%rdi
  8004200205:	48 b8 f1 63 20 04 80 	movabs $0x80042063f1,%rax
  800420020c:	00 00 00 
  800420020f:	ff d0                	callq  *%rax
	cprintf("\n");
  8004200211:	48 bf d3 e3 20 04 80 	movabs $0x800420e3d3,%rdi
  8004200218:	00 00 00 
  800420021b:	b8 00 00 00 00       	mov    $0x0,%eax
  8004200220:	48 ba 50 64 20 04 80 	movabs $0x8004206450,%rdx
  8004200227:	00 00 00 
  800420022a:	ff d2                	callq  *%rdx
	va_end(ap);

dead:
	/* break into the kernel monitor */
	while (1)
		monitor(NULL);
  800420022c:	bf 00 00 00 00       	mov    $0x0,%edi
  8004200231:	48 b8 ef 13 20 04 80 	movabs $0x80042013ef,%rax
  8004200238:	00 00 00 
  800420023b:	ff d0                	callq  *%rax
  800420023d:	eb ed                	jmp    800420022c <_panic+0x118>

000000800420023f <_warn>:
}

/* like panic, but don't */
void
_warn(const char *file, int line, const char *fmt,...)
{
  800420023f:	55                   	push   %rbp
  8004200240:	48 89 e5             	mov    %rsp,%rbp
  8004200243:	48 81 ec f0 00 00 00 	sub    $0xf0,%rsp
  800420024a:	48 89 bd 28 ff ff ff 	mov    %rdi,-0xd8(%rbp)
  8004200251:	89 b5 24 ff ff ff    	mov    %esi,-0xdc(%rbp)
  8004200257:	48 89 8d 68 ff ff ff 	mov    %rcx,-0x98(%rbp)
  800420025e:	4c 89 85 70 ff ff ff 	mov    %r8,-0x90(%rbp)
  8004200265:	4c 89 8d 78 ff ff ff 	mov    %r9,-0x88(%rbp)
  800420026c:	84 c0                	test   %al,%al
  800420026e:	74 20                	je     8004200290 <_warn+0x51>
  8004200270:	0f 29 45 80          	movaps %xmm0,-0x80(%rbp)
  8004200274:	0f 29 4d 90          	movaps %xmm1,-0x70(%rbp)
  8004200278:	0f 29 55 a0          	movaps %xmm2,-0x60(%rbp)
  800420027c:	0f 29 5d b0          	movaps %xmm3,-0x50(%rbp)
  8004200280:	0f 29 65 c0          	movaps %xmm4,-0x40(%rbp)
  8004200284:	0f 29 6d d0          	movaps %xmm5,-0x30(%rbp)
  8004200288:	0f 29 75 e0          	movaps %xmm6,-0x20(%rbp)
  800420028c:	0f 29 7d f0          	movaps %xmm7,-0x10(%rbp)
  8004200290:	48 89 95 18 ff ff ff 	mov    %rdx,-0xe8(%rbp)
	va_list ap;

	va_start(ap, fmt);
  8004200297:	c7 85 38 ff ff ff 18 	movl   $0x18,-0xc8(%rbp)
  800420029e:	00 00 00 
  80042002a1:	c7 85 3c ff ff ff 30 	movl   $0x30,-0xc4(%rbp)
  80042002a8:	00 00 00 
  80042002ab:	48 8d 45 10          	lea    0x10(%rbp),%rax
  80042002af:	48 89 85 40 ff ff ff 	mov    %rax,-0xc0(%rbp)
  80042002b6:	48 8d 85 50 ff ff ff 	lea    -0xb0(%rbp),%rax
  80042002bd:	48 89 85 48 ff ff ff 	mov    %rax,-0xb8(%rbp)
	cprintf("kernel warning at %s:%d: ", file, line);
  80042002c4:	8b 95 24 ff ff ff    	mov    -0xdc(%rbp),%edx
  80042002ca:	48 8b 85 28 ff ff ff 	mov    -0xd8(%rbp),%rax
  80042002d1:	48 89 c6             	mov    %rax,%rsi
  80042002d4:	48 bf d5 e3 20 04 80 	movabs $0x800420e3d5,%rdi
  80042002db:	00 00 00 
  80042002de:	b8 00 00 00 00       	mov    $0x0,%eax
  80042002e3:	48 b9 50 64 20 04 80 	movabs $0x8004206450,%rcx
  80042002ea:	00 00 00 
  80042002ed:	ff d1                	callq  *%rcx
	vcprintf(fmt, ap);
  80042002ef:	48 8d 95 38 ff ff ff 	lea    -0xc8(%rbp),%rdx
  80042002f6:	48 8b 85 18 ff ff ff 	mov    -0xe8(%rbp),%rax
  80042002fd:	48 89 d6             	mov    %rdx,%rsi
  8004200300:	48 89 c7             	mov    %rax,%rdi
  8004200303:	48 b8 f1 63 20 04 80 	movabs $0x80042063f1,%rax
  800420030a:	00 00 00 
  800420030d:	ff d0                	callq  *%rax
	cprintf("\n");
  800420030f:	48 bf d3 e3 20 04 80 	movabs $0x800420e3d3,%rdi
  8004200316:	00 00 00 
  8004200319:	b8 00 00 00 00       	mov    $0x0,%eax
  800420031e:	48 ba 50 64 20 04 80 	movabs $0x8004206450,%rdx
  8004200325:	00 00 00 
  8004200328:	ff d2                	callq  *%rdx
	va_end(ap);
}
  800420032a:	c9                   	leaveq 
  800420032b:	c3                   	retq   

000000800420032c <delay>:
static void cons_putc(int c);

// Stupid I/O delay routine necessitated by historical PC design flaws
static void
delay(void)
{
  800420032c:	55                   	push   %rbp
  800420032d:	48 89 e5             	mov    %rsp,%rbp
  8004200330:	48 83 ec 20          	sub    $0x20,%rsp
  8004200334:	c7 45 fc 84 00 00 00 	movl   $0x84,-0x4(%rbp)

static __inline uint8_t
inb(int port)
{
	uint8_t data;
	__asm __volatile("inb %w1,%0" : "=a" (data) : "d" (port));
  800420033b:	8b 45 fc             	mov    -0x4(%rbp),%eax
  800420033e:	89 c2                	mov    %eax,%edx
  8004200340:	ec                   	in     (%dx),%al
  8004200341:	88 45 fb             	mov    %al,-0x5(%rbp)
  8004200344:	c7 45 f4 84 00 00 00 	movl   $0x84,-0xc(%rbp)
  800420034b:	8b 45 f4             	mov    -0xc(%rbp),%eax
  800420034e:	89 c2                	mov    %eax,%edx
  8004200350:	ec                   	in     (%dx),%al
  8004200351:	88 45 f3             	mov    %al,-0xd(%rbp)
  8004200354:	c7 45 ec 84 00 00 00 	movl   $0x84,-0x14(%rbp)
  800420035b:	8b 45 ec             	mov    -0x14(%rbp),%eax
  800420035e:	89 c2                	mov    %eax,%edx
  8004200360:	ec                   	in     (%dx),%al
  8004200361:	88 45 eb             	mov    %al,-0x15(%rbp)
  8004200364:	c7 45 e4 84 00 00 00 	movl   $0x84,-0x1c(%rbp)
  800420036b:	8b 45 e4             	mov    -0x1c(%rbp),%eax
  800420036e:	89 c2                	mov    %eax,%edx
  8004200370:	ec                   	in     (%dx),%al
  8004200371:	88 45 e3             	mov    %al,-0x1d(%rbp)
	inb(0x84);
	inb(0x84);
	inb(0x84);
	inb(0x84);
}
  8004200374:	c9                   	leaveq 
  8004200375:	c3                   	retq   

0000008004200376 <serial_proc_data>:

static bool serial_exists;

static int
serial_proc_data(void)
{
  8004200376:	55                   	push   %rbp
  8004200377:	48 89 e5             	mov    %rsp,%rbp
  800420037a:	48 83 ec 10          	sub    $0x10,%rsp
  800420037e:	c7 45 fc fd 03 00 00 	movl   $0x3fd,-0x4(%rbp)
  8004200385:	8b 45 fc             	mov    -0x4(%rbp),%eax
  8004200388:	89 c2                	mov    %eax,%edx
  800420038a:	ec                   	in     (%dx),%al
  800420038b:	88 45 fb             	mov    %al,-0x5(%rbp)
	return data;
  800420038e:	0f b6 45 fb          	movzbl -0x5(%rbp),%eax
	if (!(inb(COM1+COM_LSR) & COM_LSR_DATA))
  8004200392:	0f b6 c0             	movzbl %al,%eax
  8004200395:	83 e0 01             	and    $0x1,%eax
  8004200398:	85 c0                	test   %eax,%eax
  800420039a:	75 07                	jne    80042003a3 <serial_proc_data+0x2d>
		return -1;
  800420039c:	b8 ff ff ff ff       	mov    $0xffffffff,%eax
  80042003a1:	eb 17                	jmp    80042003ba <serial_proc_data+0x44>
  80042003a3:	c7 45 f4 f8 03 00 00 	movl   $0x3f8,-0xc(%rbp)

static __inline uint8_t
inb(int port)
{
	uint8_t data;
	__asm __volatile("inb %w1,%0" : "=a" (data) : "d" (port));
  80042003aa:	8b 45 f4             	mov    -0xc(%rbp),%eax
  80042003ad:	89 c2                	mov    %eax,%edx
  80042003af:	ec                   	in     (%dx),%al
  80042003b0:	88 45 f3             	mov    %al,-0xd(%rbp)
	return data;
  80042003b3:	0f b6 45 f3          	movzbl -0xd(%rbp),%eax
	return inb(COM1+COM_RX);
  80042003b7:	0f b6 c0             	movzbl %al,%eax
}
  80042003ba:	c9                   	leaveq 
  80042003bb:	c3                   	retq   

00000080042003bc <serial_intr>:

void
serial_intr(void)
{
  80042003bc:	55                   	push   %rbp
  80042003bd:	48 89 e5             	mov    %rsp,%rbp
	if (serial_exists)
  80042003c0:	48 b8 a0 26 22 04 80 	movabs $0x80042226a0,%rax
  80042003c7:	00 00 00 
  80042003ca:	0f b6 00             	movzbl (%rax),%eax
  80042003cd:	84 c0                	test   %al,%al
  80042003cf:	74 16                	je     80042003e7 <serial_intr+0x2b>
		cons_intr(serial_proc_data);
  80042003d1:	48 bf 76 03 20 04 80 	movabs $0x8004200376,%rdi
  80042003d8:	00 00 00 
  80042003db:	48 b8 f9 0b 20 04 80 	movabs $0x8004200bf9,%rax
  80042003e2:	00 00 00 
  80042003e5:	ff d0                	callq  *%rax
}
  80042003e7:	5d                   	pop    %rbp
  80042003e8:	c3                   	retq   

00000080042003e9 <serial_putc>:

static void
serial_putc(int c)
{
  80042003e9:	55                   	push   %rbp
  80042003ea:	48 89 e5             	mov    %rsp,%rbp
  80042003ed:	48 83 ec 28          	sub    $0x28,%rsp
  80042003f1:	89 7d dc             	mov    %edi,-0x24(%rbp)
	int i;

	for (i = 0;
  80042003f4:	c7 45 fc 00 00 00 00 	movl   $0x0,-0x4(%rbp)
  80042003fb:	eb 10                	jmp    800420040d <serial_putc+0x24>
	     !(inb(COM1 + COM_LSR) & COM_LSR_TXRDY) && i < 12800;
	     i++)
		delay();
  80042003fd:	48 b8 2c 03 20 04 80 	movabs $0x800420032c,%rax
  8004200404:	00 00 00 
  8004200407:	ff d0                	callq  *%rax
{
	int i;

	for (i = 0;
	     !(inb(COM1 + COM_LSR) & COM_LSR_TXRDY) && i < 12800;
	     i++)
  8004200409:	83 45 fc 01          	addl   $0x1,-0x4(%rbp)
  800420040d:	c7 45 f8 fd 03 00 00 	movl   $0x3fd,-0x8(%rbp)

static __inline uint8_t
inb(int port)
{
	uint8_t data;
	__asm __volatile("inb %w1,%0" : "=a" (data) : "d" (port));
  8004200414:	8b 45 f8             	mov    -0x8(%rbp),%eax
  8004200417:	89 c2                	mov    %eax,%edx
  8004200419:	ec                   	in     (%dx),%al
  800420041a:	88 45 f7             	mov    %al,-0x9(%rbp)
	return data;
  800420041d:	0f b6 45 f7          	movzbl -0x9(%rbp),%eax
serial_putc(int c)
{
	int i;

	for (i = 0;
	     !(inb(COM1 + COM_LSR) & COM_LSR_TXRDY) && i < 12800;
  8004200421:	0f b6 c0             	movzbl %al,%eax
  8004200424:	83 e0 20             	and    $0x20,%eax
static void
serial_putc(int c)
{
	int i;

	for (i = 0;
  8004200427:	85 c0                	test   %eax,%eax
  8004200429:	75 09                	jne    8004200434 <serial_putc+0x4b>
	     !(inb(COM1 + COM_LSR) & COM_LSR_TXRDY) && i < 12800;
  800420042b:	81 7d fc ff 31 00 00 	cmpl   $0x31ff,-0x4(%rbp)
  8004200432:	7e c9                	jle    80042003fd <serial_putc+0x14>
	     i++)
		delay();

	outb(COM1 + COM_TX, c);
  8004200434:	8b 45 dc             	mov    -0x24(%rbp),%eax
  8004200437:	0f b6 c0             	movzbl %al,%eax
  800420043a:	c7 45 f0 f8 03 00 00 	movl   $0x3f8,-0x10(%rbp)
  8004200441:	88 45 ef             	mov    %al,-0x11(%rbp)
}

static __inline void
outb(int port, uint8_t data)
{
	__asm __volatile("outb %0,%w1" : : "a" (data), "d" (port));
  8004200444:	0f b6 45 ef          	movzbl -0x11(%rbp),%eax
  8004200448:	8b 55 f0             	mov    -0x10(%rbp),%edx
  800420044b:	ee                   	out    %al,(%dx)
}
  800420044c:	c9                   	leaveq 
  800420044d:	c3                   	retq   

000000800420044e <serial_init>:

static void
serial_init(void)
{
  800420044e:	55                   	push   %rbp
  800420044f:	48 89 e5             	mov    %rsp,%rbp
  8004200452:	48 83 ec 50          	sub    $0x50,%rsp
  8004200456:	c7 45 fc fa 03 00 00 	movl   $0x3fa,-0x4(%rbp)
  800420045d:	c6 45 fb 00          	movb   $0x0,-0x5(%rbp)
  8004200461:	0f b6 45 fb          	movzbl -0x5(%rbp),%eax
  8004200465:	8b 55 fc             	mov    -0x4(%rbp),%edx
  8004200468:	ee                   	out    %al,(%dx)
  8004200469:	c7 45 f4 fb 03 00 00 	movl   $0x3fb,-0xc(%rbp)
  8004200470:	c6 45 f3 80          	movb   $0x80,-0xd(%rbp)
  8004200474:	0f b6 45 f3          	movzbl -0xd(%rbp),%eax
  8004200478:	8b 55 f4             	mov    -0xc(%rbp),%edx
  800420047b:	ee                   	out    %al,(%dx)
  800420047c:	c7 45 ec f8 03 00 00 	movl   $0x3f8,-0x14(%rbp)
  8004200483:	c6 45 eb 0c          	movb   $0xc,-0x15(%rbp)
  8004200487:	0f b6 45 eb          	movzbl -0x15(%rbp),%eax
  800420048b:	8b 55 ec             	mov    -0x14(%rbp),%edx
  800420048e:	ee                   	out    %al,(%dx)
  800420048f:	c7 45 e4 f9 03 00 00 	movl   $0x3f9,-0x1c(%rbp)
  8004200496:	c6 45 e3 00          	movb   $0x0,-0x1d(%rbp)
  800420049a:	0f b6 45 e3          	movzbl -0x1d(%rbp),%eax
  800420049e:	8b 55 e4             	mov    -0x1c(%rbp),%edx
  80042004a1:	ee                   	out    %al,(%dx)
  80042004a2:	c7 45 dc fb 03 00 00 	movl   $0x3fb,-0x24(%rbp)
  80042004a9:	c6 45 db 03          	movb   $0x3,-0x25(%rbp)
  80042004ad:	0f b6 45 db          	movzbl -0x25(%rbp),%eax
  80042004b1:	8b 55 dc             	mov    -0x24(%rbp),%edx
  80042004b4:	ee                   	out    %al,(%dx)
  80042004b5:	c7 45 d4 fc 03 00 00 	movl   $0x3fc,-0x2c(%rbp)
  80042004bc:	c6 45 d3 00          	movb   $0x0,-0x2d(%rbp)
  80042004c0:	0f b6 45 d3          	movzbl -0x2d(%rbp),%eax
  80042004c4:	8b 55 d4             	mov    -0x2c(%rbp),%edx
  80042004c7:	ee                   	out    %al,(%dx)
  80042004c8:	c7 45 cc f9 03 00 00 	movl   $0x3f9,-0x34(%rbp)
  80042004cf:	c6 45 cb 01          	movb   $0x1,-0x35(%rbp)
  80042004d3:	0f b6 45 cb          	movzbl -0x35(%rbp),%eax
  80042004d7:	8b 55 cc             	mov    -0x34(%rbp),%edx
  80042004da:	ee                   	out    %al,(%dx)
  80042004db:	c7 45 c4 fd 03 00 00 	movl   $0x3fd,-0x3c(%rbp)

static __inline uint8_t
inb(int port)
{
	uint8_t data;
	__asm __volatile("inb %w1,%0" : "=a" (data) : "d" (port));
  80042004e2:	8b 45 c4             	mov    -0x3c(%rbp),%eax
  80042004e5:	89 c2                	mov    %eax,%edx
  80042004e7:	ec                   	in     (%dx),%al
  80042004e8:	88 45 c3             	mov    %al,-0x3d(%rbp)
	return data;
  80042004eb:	0f b6 45 c3          	movzbl -0x3d(%rbp),%eax
	// Enable rcv interrupts
	outb(COM1+COM_IER, COM_IER_RDI);

	// Clear any preexisting overrun indications and interrupts
	// Serial port doesn't exist if COM_LSR returns 0xFF
	serial_exists = (inb(COM1+COM_LSR) != 0xFF);
  80042004ef:	3c ff                	cmp    $0xff,%al
  80042004f1:	0f 95 c2             	setne  %dl
  80042004f4:	48 b8 a0 26 22 04 80 	movabs $0x80042226a0,%rax
  80042004fb:	00 00 00 
  80042004fe:	88 10                	mov    %dl,(%rax)
  8004200500:	c7 45 bc fa 03 00 00 	movl   $0x3fa,-0x44(%rbp)

static __inline uint8_t
inb(int port)
{
	uint8_t data;
	__asm __volatile("inb %w1,%0" : "=a" (data) : "d" (port));
  8004200507:	8b 45 bc             	mov    -0x44(%rbp),%eax
  800420050a:	89 c2                	mov    %eax,%edx
  800420050c:	ec                   	in     (%dx),%al
  800420050d:	88 45 bb             	mov    %al,-0x45(%rbp)
  8004200510:	c7 45 b4 f8 03 00 00 	movl   $0x3f8,-0x4c(%rbp)
  8004200517:	8b 45 b4             	mov    -0x4c(%rbp),%eax
  800420051a:	89 c2                	mov    %eax,%edx
  800420051c:	ec                   	in     (%dx),%al
  800420051d:	88 45 b3             	mov    %al,-0x4d(%rbp)
	(void) inb(COM1+COM_IIR);
	(void) inb(COM1+COM_RX);

}
  8004200520:	c9                   	leaveq 
  8004200521:	c3                   	retq   

0000008004200522 <lpt_putc>:
// For information on PC parallel port programming, see the class References
// page.

static void
lpt_putc(int c)
{
  8004200522:	55                   	push   %rbp
  8004200523:	48 89 e5             	mov    %rsp,%rbp
  8004200526:	48 83 ec 38          	sub    $0x38,%rsp
  800420052a:	89 7d cc             	mov    %edi,-0x34(%rbp)
	int i;

	for (i = 0; !(inb(0x378+1) & 0x80) && i < 12800; i++)
  800420052d:	c7 45 fc 00 00 00 00 	movl   $0x0,-0x4(%rbp)
  8004200534:	eb 10                	jmp    8004200546 <lpt_putc+0x24>
		delay();
  8004200536:	48 b8 2c 03 20 04 80 	movabs $0x800420032c,%rax
  800420053d:	00 00 00 
  8004200540:	ff d0                	callq  *%rax
static void
lpt_putc(int c)
{
	int i;

	for (i = 0; !(inb(0x378+1) & 0x80) && i < 12800; i++)
  8004200542:	83 45 fc 01          	addl   $0x1,-0x4(%rbp)
  8004200546:	c7 45 f8 79 03 00 00 	movl   $0x379,-0x8(%rbp)
  800420054d:	8b 45 f8             	mov    -0x8(%rbp),%eax
  8004200550:	89 c2                	mov    %eax,%edx
  8004200552:	ec                   	in     (%dx),%al
  8004200553:	88 45 f7             	mov    %al,-0x9(%rbp)
	return data;
  8004200556:	0f b6 45 f7          	movzbl -0x9(%rbp),%eax
  800420055a:	84 c0                	test   %al,%al
  800420055c:	78 09                	js     8004200567 <lpt_putc+0x45>
  800420055e:	81 7d fc ff 31 00 00 	cmpl   $0x31ff,-0x4(%rbp)
  8004200565:	7e cf                	jle    8004200536 <lpt_putc+0x14>
		delay();
	outb(0x378+0, c);
  8004200567:	8b 45 cc             	mov    -0x34(%rbp),%eax
  800420056a:	0f b6 c0             	movzbl %al,%eax
  800420056d:	c7 45 f0 78 03 00 00 	movl   $0x378,-0x10(%rbp)
  8004200574:	88 45 ef             	mov    %al,-0x11(%rbp)
}

static __inline void
outb(int port, uint8_t data)
{
	__asm __volatile("outb %0,%w1" : : "a" (data), "d" (port));
  8004200577:	0f b6 45 ef          	movzbl -0x11(%rbp),%eax
  800420057b:	8b 55 f0             	mov    -0x10(%rbp),%edx
  800420057e:	ee                   	out    %al,(%dx)
  800420057f:	c7 45 e8 7a 03 00 00 	movl   $0x37a,-0x18(%rbp)
  8004200586:	c6 45 e7 0d          	movb   $0xd,-0x19(%rbp)
  800420058a:	0f b6 45 e7          	movzbl -0x19(%rbp),%eax
  800420058e:	8b 55 e8             	mov    -0x18(%rbp),%edx
  8004200591:	ee                   	out    %al,(%dx)
  8004200592:	c7 45 e0 7a 03 00 00 	movl   $0x37a,-0x20(%rbp)
  8004200599:	c6 45 df 08          	movb   $0x8,-0x21(%rbp)
  800420059d:	0f b6 45 df          	movzbl -0x21(%rbp),%eax
  80042005a1:	8b 55 e0             	mov    -0x20(%rbp),%edx
  80042005a4:	ee                   	out    %al,(%dx)
	outb(0x378+2, 0x08|0x04|0x01);
	outb(0x378+2, 0x08);
}
  80042005a5:	c9                   	leaveq 
  80042005a6:	c3                   	retq   

00000080042005a7 <cga_init>:
static uint16_t *crt_buf;
static uint16_t crt_pos;

static void
cga_init(void)
{
  80042005a7:	55                   	push   %rbp
  80042005a8:	48 89 e5             	mov    %rsp,%rbp
  80042005ab:	48 83 ec 30          	sub    $0x30,%rsp
	volatile uint16_t *cp;
	uint16_t was;
	unsigned pos;

	cp = (uint16_t*) (KERNBASE + CGA_BUF);
  80042005af:	48 b8 00 80 0b 04 80 	movabs $0x80040b8000,%rax
  80042005b6:	00 00 00 
  80042005b9:	48 89 45 f8          	mov    %rax,-0x8(%rbp)
	was = *cp;
  80042005bd:	48 8b 45 f8          	mov    -0x8(%rbp),%rax
  80042005c1:	0f b7 00             	movzwl (%rax),%eax
  80042005c4:	66 89 45 f6          	mov    %ax,-0xa(%rbp)
	*cp = (uint16_t) 0xA55A;
  80042005c8:	48 8b 45 f8          	mov    -0x8(%rbp),%rax
  80042005cc:	66 c7 00 5a a5       	movw   $0xa55a,(%rax)
	if (*cp != 0xA55A) {
  80042005d1:	48 8b 45 f8          	mov    -0x8(%rbp),%rax
  80042005d5:	0f b7 00             	movzwl (%rax),%eax
  80042005d8:	66 3d 5a a5          	cmp    $0xa55a,%ax
  80042005dc:	74 20                	je     80042005fe <cga_init+0x57>
		cp = (uint16_t*) (KERNBASE + MONO_BUF);
  80042005de:	48 b8 00 00 0b 04 80 	movabs $0x80040b0000,%rax
  80042005e5:	00 00 00 
  80042005e8:	48 89 45 f8          	mov    %rax,-0x8(%rbp)
		addr_6845 = MONO_BASE;
  80042005ec:	48 b8 a4 26 22 04 80 	movabs $0x80042226a4,%rax
  80042005f3:	00 00 00 
  80042005f6:	c7 00 b4 03 00 00    	movl   $0x3b4,(%rax)
  80042005fc:	eb 1b                	jmp    8004200619 <cga_init+0x72>
	} else {
		*cp = was;
  80042005fe:	48 8b 45 f8          	mov    -0x8(%rbp),%rax
  8004200602:	0f b7 55 f6          	movzwl -0xa(%rbp),%edx
  8004200606:	66 89 10             	mov    %dx,(%rax)
		addr_6845 = CGA_BASE;
  8004200609:	48 b8 a4 26 22 04 80 	movabs $0x80042226a4,%rax
  8004200610:	00 00 00 
  8004200613:	c7 00 d4 03 00 00    	movl   $0x3d4,(%rax)
	}

	/* Extract cursor location */
	outb(addr_6845, 14);
  8004200619:	48 b8 a4 26 22 04 80 	movabs $0x80042226a4,%rax
  8004200620:	00 00 00 
  8004200623:	8b 00                	mov    (%rax),%eax
  8004200625:	89 45 ec             	mov    %eax,-0x14(%rbp)
  8004200628:	c6 45 eb 0e          	movb   $0xe,-0x15(%rbp)
  800420062c:	0f b6 45 eb          	movzbl -0x15(%rbp),%eax
  8004200630:	8b 55 ec             	mov    -0x14(%rbp),%edx
  8004200633:	ee                   	out    %al,(%dx)
	pos = inb(addr_6845 + 1) << 8;
  8004200634:	48 b8 a4 26 22 04 80 	movabs $0x80042226a4,%rax
  800420063b:	00 00 00 
  800420063e:	8b 00                	mov    (%rax),%eax
  8004200640:	83 c0 01             	add    $0x1,%eax
  8004200643:	89 45 e4             	mov    %eax,-0x1c(%rbp)

static __inline uint8_t
inb(int port)
{
	uint8_t data;
	__asm __volatile("inb %w1,%0" : "=a" (data) : "d" (port));
  8004200646:	8b 45 e4             	mov    -0x1c(%rbp),%eax
  8004200649:	89 c2                	mov    %eax,%edx
  800420064b:	ec                   	in     (%dx),%al
  800420064c:	88 45 e3             	mov    %al,-0x1d(%rbp)
	return data;
  800420064f:	0f b6 45 e3          	movzbl -0x1d(%rbp),%eax
  8004200653:	0f b6 c0             	movzbl %al,%eax
  8004200656:	c1 e0 08             	shl    $0x8,%eax
  8004200659:	89 45 f0             	mov    %eax,-0x10(%rbp)
	outb(addr_6845, 15);
  800420065c:	48 b8 a4 26 22 04 80 	movabs $0x80042226a4,%rax
  8004200663:	00 00 00 
  8004200666:	8b 00                	mov    (%rax),%eax
  8004200668:	89 45 dc             	mov    %eax,-0x24(%rbp)
  800420066b:	c6 45 db 0f          	movb   $0xf,-0x25(%rbp)
}

static __inline void
outb(int port, uint8_t data)
{
	__asm __volatile("outb %0,%w1" : : "a" (data), "d" (port));
  800420066f:	0f b6 45 db          	movzbl -0x25(%rbp),%eax
  8004200673:	8b 55 dc             	mov    -0x24(%rbp),%edx
  8004200676:	ee                   	out    %al,(%dx)
	pos |= inb(addr_6845 + 1);
  8004200677:	48 b8 a4 26 22 04 80 	movabs $0x80042226a4,%rax
  800420067e:	00 00 00 
  8004200681:	8b 00                	mov    (%rax),%eax
  8004200683:	83 c0 01             	add    $0x1,%eax
  8004200686:	89 45 d4             	mov    %eax,-0x2c(%rbp)

static __inline uint8_t
inb(int port)
{
	uint8_t data;
	__asm __volatile("inb %w1,%0" : "=a" (data) : "d" (port));
  8004200689:	8b 45 d4             	mov    -0x2c(%rbp),%eax
  800420068c:	89 c2                	mov    %eax,%edx
  800420068e:	ec                   	in     (%dx),%al
  800420068f:	88 45 d3             	mov    %al,-0x2d(%rbp)
	return data;
  8004200692:	0f b6 45 d3          	movzbl -0x2d(%rbp),%eax
  8004200696:	0f b6 c0             	movzbl %al,%eax
  8004200699:	09 45 f0             	or     %eax,-0x10(%rbp)

	crt_buf = (uint16_t*) cp;
  800420069c:	48 b8 a8 26 22 04 80 	movabs $0x80042226a8,%rax
  80042006a3:	00 00 00 
  80042006a6:	48 8b 55 f8          	mov    -0x8(%rbp),%rdx
  80042006aa:	48 89 10             	mov    %rdx,(%rax)
	crt_pos = pos;
  80042006ad:	8b 45 f0             	mov    -0x10(%rbp),%eax
  80042006b0:	89 c2                	mov    %eax,%edx
  80042006b2:	48 b8 b0 26 22 04 80 	movabs $0x80042226b0,%rax
  80042006b9:	00 00 00 
  80042006bc:	66 89 10             	mov    %dx,(%rax)
}
  80042006bf:	c9                   	leaveq 
  80042006c0:	c3                   	retq   

00000080042006c1 <cga_putc>:



static void
cga_putc(int c)
{
  80042006c1:	55                   	push   %rbp
  80042006c2:	48 89 e5             	mov    %rsp,%rbp
  80042006c5:	48 83 ec 40          	sub    $0x40,%rsp
  80042006c9:	89 7d cc             	mov    %edi,-0x34(%rbp)
	// if no attribute given, then use black on white
	if (!(c & ~0xFF))
  80042006cc:	8b 45 cc             	mov    -0x34(%rbp),%eax
  80042006cf:	b0 00                	mov    $0x0,%al
  80042006d1:	85 c0                	test   %eax,%eax
  80042006d3:	75 07                	jne    80042006dc <cga_putc+0x1b>
		c |= 0x0700;
  80042006d5:	81 4d cc 00 07 00 00 	orl    $0x700,-0x34(%rbp)

	switch (c & 0xff) {
  80042006dc:	8b 45 cc             	mov    -0x34(%rbp),%eax
  80042006df:	0f b6 c0             	movzbl %al,%eax
  80042006e2:	83 f8 09             	cmp    $0x9,%eax
  80042006e5:	0f 84 f6 00 00 00    	je     80042007e1 <cga_putc+0x120>
  80042006eb:	83 f8 09             	cmp    $0x9,%eax
  80042006ee:	7f 0a                	jg     80042006fa <cga_putc+0x39>
  80042006f0:	83 f8 08             	cmp    $0x8,%eax
  80042006f3:	74 18                	je     800420070d <cga_putc+0x4c>
  80042006f5:	e9 3e 01 00 00       	jmpq   8004200838 <cga_putc+0x177>
  80042006fa:	83 f8 0a             	cmp    $0xa,%eax
  80042006fd:	74 75                	je     8004200774 <cga_putc+0xb3>
  80042006ff:	83 f8 0d             	cmp    $0xd,%eax
  8004200702:	0f 84 89 00 00 00    	je     8004200791 <cga_putc+0xd0>
  8004200708:	e9 2b 01 00 00       	jmpq   8004200838 <cga_putc+0x177>
	case '\b':
		if (crt_pos > 0) {
  800420070d:	48 b8 b0 26 22 04 80 	movabs $0x80042226b0,%rax
  8004200714:	00 00 00 
  8004200717:	0f b7 00             	movzwl (%rax),%eax
  800420071a:	66 85 c0             	test   %ax,%ax
  800420071d:	74 50                	je     800420076f <cga_putc+0xae>
			crt_pos--;
  800420071f:	48 b8 b0 26 22 04 80 	movabs $0x80042226b0,%rax
  8004200726:	00 00 00 
  8004200729:	0f b7 00             	movzwl (%rax),%eax
  800420072c:	8d 50 ff             	lea    -0x1(%rax),%edx
  800420072f:	48 b8 b0 26 22 04 80 	movabs $0x80042226b0,%rax
  8004200736:	00 00 00 
  8004200739:	66 89 10             	mov    %dx,(%rax)
			crt_buf[crt_pos] = (c & ~0xff) | ' ';
  800420073c:	48 b8 a8 26 22 04 80 	movabs $0x80042226a8,%rax
  8004200743:	00 00 00 
  8004200746:	48 8b 10             	mov    (%rax),%rdx
  8004200749:	48 b8 b0 26 22 04 80 	movabs $0x80042226b0,%rax
  8004200750:	00 00 00 
  8004200753:	0f b7 00             	movzwl (%rax),%eax
  8004200756:	0f b7 c0             	movzwl %ax,%eax
  8004200759:	48 01 c0             	add    %rax,%rax
  800420075c:	48 01 c2             	add    %rax,%rdx
  800420075f:	8b 45 cc             	mov    -0x34(%rbp),%eax
  8004200762:	b0 00                	mov    $0x0,%al
  8004200764:	83 c8 20             	or     $0x20,%eax
  8004200767:	66 89 02             	mov    %ax,(%rdx)
		}
		break;
  800420076a:	e9 04 01 00 00       	jmpq   8004200873 <cga_putc+0x1b2>
  800420076f:	e9 ff 00 00 00       	jmpq   8004200873 <cga_putc+0x1b2>
	case '\n':
		crt_pos += CRT_COLS;
  8004200774:	48 b8 b0 26 22 04 80 	movabs $0x80042226b0,%rax
  800420077b:	00 00 00 
  800420077e:	0f b7 00             	movzwl (%rax),%eax
  8004200781:	8d 50 50             	lea    0x50(%rax),%edx
  8004200784:	48 b8 b0 26 22 04 80 	movabs $0x80042226b0,%rax
  800420078b:	00 00 00 
  800420078e:	66 89 10             	mov    %dx,(%rax)
		/* fallthru */
	case '\r':
		crt_pos -= (crt_pos % CRT_COLS);
  8004200791:	48 b8 b0 26 22 04 80 	movabs $0x80042226b0,%rax
  8004200798:	00 00 00 
  800420079b:	0f b7 30             	movzwl (%rax),%esi
  800420079e:	48 b8 b0 26 22 04 80 	movabs $0x80042226b0,%rax
  80042007a5:	00 00 00 
  80042007a8:	0f b7 08             	movzwl (%rax),%ecx
  80042007ab:	0f b7 c1             	movzwl %cx,%eax
  80042007ae:	69 c0 cd cc 00 00    	imul   $0xcccd,%eax,%eax
  80042007b4:	c1 e8 10             	shr    $0x10,%eax
  80042007b7:	89 c2                	mov    %eax,%edx
  80042007b9:	66 c1 ea 06          	shr    $0x6,%dx
  80042007bd:	89 d0                	mov    %edx,%eax
  80042007bf:	c1 e0 02             	shl    $0x2,%eax
  80042007c2:	01 d0                	add    %edx,%eax
  80042007c4:	c1 e0 04             	shl    $0x4,%eax
  80042007c7:	29 c1                	sub    %eax,%ecx
  80042007c9:	89 ca                	mov    %ecx,%edx
  80042007cb:	29 d6                	sub    %edx,%esi
  80042007cd:	89 f2                	mov    %esi,%edx
  80042007cf:	48 b8 b0 26 22 04 80 	movabs $0x80042226b0,%rax
  80042007d6:	00 00 00 
  80042007d9:	66 89 10             	mov    %dx,(%rax)
		break;
  80042007dc:	e9 92 00 00 00       	jmpq   8004200873 <cga_putc+0x1b2>
	case '\t':
		cons_putc(' ');
  80042007e1:	bf 20 00 00 00       	mov    $0x20,%edi
  80042007e6:	48 b8 36 0d 20 04 80 	movabs $0x8004200d36,%rax
  80042007ed:	00 00 00 
  80042007f0:	ff d0                	callq  *%rax
		cons_putc(' ');
  80042007f2:	bf 20 00 00 00       	mov    $0x20,%edi
  80042007f7:	48 b8 36 0d 20 04 80 	movabs $0x8004200d36,%rax
  80042007fe:	00 00 00 
  8004200801:	ff d0                	callq  *%rax
		cons_putc(' ');
  8004200803:	bf 20 00 00 00       	mov    $0x20,%edi
  8004200808:	48 b8 36 0d 20 04 80 	movabs $0x8004200d36,%rax
  800420080f:	00 00 00 
  8004200812:	ff d0                	callq  *%rax
		cons_putc(' ');
  8004200814:	bf 20 00 00 00       	mov    $0x20,%edi
  8004200819:	48 b8 36 0d 20 04 80 	movabs $0x8004200d36,%rax
  8004200820:	00 00 00 
  8004200823:	ff d0                	callq  *%rax
		cons_putc(' ');
  8004200825:	bf 20 00 00 00       	mov    $0x20,%edi
  800420082a:	48 b8 36 0d 20 04 80 	movabs $0x8004200d36,%rax
  8004200831:	00 00 00 
  8004200834:	ff d0                	callq  *%rax
		break;
  8004200836:	eb 3b                	jmp    8004200873 <cga_putc+0x1b2>
	default:
		crt_buf[crt_pos++] = c;		/* write the character */
  8004200838:	48 b8 a8 26 22 04 80 	movabs $0x80042226a8,%rax
  800420083f:	00 00 00 
  8004200842:	48 8b 30             	mov    (%rax),%rsi
  8004200845:	48 b8 b0 26 22 04 80 	movabs $0x80042226b0,%rax
  800420084c:	00 00 00 
  800420084f:	0f b7 00             	movzwl (%rax),%eax
  8004200852:	8d 48 01             	lea    0x1(%rax),%ecx
  8004200855:	48 ba b0 26 22 04 80 	movabs $0x80042226b0,%rdx
  800420085c:	00 00 00 
  800420085f:	66 89 0a             	mov    %cx,(%rdx)
  8004200862:	0f b7 c0             	movzwl %ax,%eax
  8004200865:	48 01 c0             	add    %rax,%rax
  8004200868:	48 8d 14 06          	lea    (%rsi,%rax,1),%rdx
  800420086c:	8b 45 cc             	mov    -0x34(%rbp),%eax
  800420086f:	66 89 02             	mov    %ax,(%rdx)
		break;
  8004200872:	90                   	nop
	}

	// What is the purpose of this?
	if (crt_pos >= CRT_SIZE) {
  8004200873:	48 b8 b0 26 22 04 80 	movabs $0x80042226b0,%rax
  800420087a:	00 00 00 
  800420087d:	0f b7 00             	movzwl (%rax),%eax
  8004200880:	66 3d cf 07          	cmp    $0x7cf,%ax
  8004200884:	0f 86 89 00 00 00    	jbe    8004200913 <cga_putc+0x252>
		int i;

		memmove(crt_buf, crt_buf + CRT_COLS, (CRT_SIZE - CRT_COLS) * sizeof(uint16_t));
  800420088a:	48 b8 a8 26 22 04 80 	movabs $0x80042226a8,%rax
  8004200891:	00 00 00 
  8004200894:	48 8b 00             	mov    (%rax),%rax
  8004200897:	48 8d 88 a0 00 00 00 	lea    0xa0(%rax),%rcx
  800420089e:	48 b8 a8 26 22 04 80 	movabs $0x80042226a8,%rax
  80042008a5:	00 00 00 
  80042008a8:	48 8b 00             	mov    (%rax),%rax
  80042008ab:	ba 00 0f 00 00       	mov    $0xf00,%edx
  80042008b0:	48 89 ce             	mov    %rcx,%rsi
  80042008b3:	48 89 c7             	mov    %rax,%rdi
  80042008b6:	48 b8 2b 80 20 04 80 	movabs $0x800420802b,%rax
  80042008bd:	00 00 00 
  80042008c0:	ff d0                	callq  *%rax
		for (i = CRT_SIZE - CRT_COLS; i < CRT_SIZE; i++)
  80042008c2:	c7 45 fc 80 07 00 00 	movl   $0x780,-0x4(%rbp)
  80042008c9:	eb 22                	jmp    80042008ed <cga_putc+0x22c>
			crt_buf[i] = 0x0700 | ' ';
  80042008cb:	48 b8 a8 26 22 04 80 	movabs $0x80042226a8,%rax
  80042008d2:	00 00 00 
  80042008d5:	48 8b 00             	mov    (%rax),%rax
  80042008d8:	8b 55 fc             	mov    -0x4(%rbp),%edx
  80042008db:	48 63 d2             	movslq %edx,%rdx
  80042008de:	48 01 d2             	add    %rdx,%rdx
  80042008e1:	48 01 d0             	add    %rdx,%rax
  80042008e4:	66 c7 00 20 07       	movw   $0x720,(%rax)
	// What is the purpose of this?
	if (crt_pos >= CRT_SIZE) {
		int i;

		memmove(crt_buf, crt_buf + CRT_COLS, (CRT_SIZE - CRT_COLS) * sizeof(uint16_t));
		for (i = CRT_SIZE - CRT_COLS; i < CRT_SIZE; i++)
  80042008e9:	83 45 fc 01          	addl   $0x1,-0x4(%rbp)
  80042008ed:	81 7d fc cf 07 00 00 	cmpl   $0x7cf,-0x4(%rbp)
  80042008f4:	7e d5                	jle    80042008cb <cga_putc+0x20a>
			crt_buf[i] = 0x0700 | ' ';
		crt_pos -= CRT_COLS;
  80042008f6:	48 b8 b0 26 22 04 80 	movabs $0x80042226b0,%rax
  80042008fd:	00 00 00 
  8004200900:	0f b7 00             	movzwl (%rax),%eax
  8004200903:	8d 50 b0             	lea    -0x50(%rax),%edx
  8004200906:	48 b8 b0 26 22 04 80 	movabs $0x80042226b0,%rax
  800420090d:	00 00 00 
  8004200910:	66 89 10             	mov    %dx,(%rax)
	}

	/* move that little blinky thing */
	outb(addr_6845, 14);
  8004200913:	48 b8 a4 26 22 04 80 	movabs $0x80042226a4,%rax
  800420091a:	00 00 00 
  800420091d:	8b 00                	mov    (%rax),%eax
  800420091f:	89 45 f8             	mov    %eax,-0x8(%rbp)
  8004200922:	c6 45 f7 0e          	movb   $0xe,-0x9(%rbp)
}

static __inline void
outb(int port, uint8_t data)
{
	__asm __volatile("outb %0,%w1" : : "a" (data), "d" (port));
  8004200926:	0f b6 45 f7          	movzbl -0x9(%rbp),%eax
  800420092a:	8b 55 f8             	mov    -0x8(%rbp),%edx
  800420092d:	ee                   	out    %al,(%dx)
	outb(addr_6845 + 1, crt_pos >> 8);
  800420092e:	48 b8 b0 26 22 04 80 	movabs $0x80042226b0,%rax
  8004200935:	00 00 00 
  8004200938:	0f b7 00             	movzwl (%rax),%eax
  800420093b:	66 c1 e8 08          	shr    $0x8,%ax
  800420093f:	0f b6 c0             	movzbl %al,%eax
  8004200942:	48 ba a4 26 22 04 80 	movabs $0x80042226a4,%rdx
  8004200949:	00 00 00 
  800420094c:	8b 12                	mov    (%rdx),%edx
  800420094e:	83 c2 01             	add    $0x1,%edx
  8004200951:	89 55 f0             	mov    %edx,-0x10(%rbp)
  8004200954:	88 45 ef             	mov    %al,-0x11(%rbp)
  8004200957:	0f b6 45 ef          	movzbl -0x11(%rbp),%eax
  800420095b:	8b 55 f0             	mov    -0x10(%rbp),%edx
  800420095e:	ee                   	out    %al,(%dx)
	outb(addr_6845, 15);
  800420095f:	48 b8 a4 26 22 04 80 	movabs $0x80042226a4,%rax
  8004200966:	00 00 00 
  8004200969:	8b 00                	mov    (%rax),%eax
  800420096b:	89 45 e8             	mov    %eax,-0x18(%rbp)
  800420096e:	c6 45 e7 0f          	movb   $0xf,-0x19(%rbp)
  8004200972:	0f b6 45 e7          	movzbl -0x19(%rbp),%eax
  8004200976:	8b 55 e8             	mov    -0x18(%rbp),%edx
  8004200979:	ee                   	out    %al,(%dx)
	outb(addr_6845 + 1, crt_pos);
  800420097a:	48 b8 b0 26 22 04 80 	movabs $0x80042226b0,%rax
  8004200981:	00 00 00 
  8004200984:	0f b7 00             	movzwl (%rax),%eax
  8004200987:	0f b6 c0             	movzbl %al,%eax
  800420098a:	48 ba a4 26 22 04 80 	movabs $0x80042226a4,%rdx
  8004200991:	00 00 00 
  8004200994:	8b 12                	mov    (%rdx),%edx
  8004200996:	83 c2 01             	add    $0x1,%edx
  8004200999:	89 55 e0             	mov    %edx,-0x20(%rbp)
  800420099c:	88 45 df             	mov    %al,-0x21(%rbp)
  800420099f:	0f b6 45 df          	movzbl -0x21(%rbp),%eax
  80042009a3:	8b 55 e0             	mov    -0x20(%rbp),%edx
  80042009a6:	ee                   	out    %al,(%dx)
}
  80042009a7:	c9                   	leaveq 
  80042009a8:	c3                   	retq   

00000080042009a9 <kbd_proc_data>:
 * Get data from the keyboard.  If we finish a character, return it.  Else 0.
 * Return -1 if no data.
 */
static int
kbd_proc_data(void)
{
  80042009a9:	55                   	push   %rbp
  80042009aa:	48 89 e5             	mov    %rsp,%rbp
  80042009ad:	48 83 ec 20          	sub    $0x20,%rsp
  80042009b1:	c7 45 f4 64 00 00 00 	movl   $0x64,-0xc(%rbp)

static __inline uint8_t
inb(int port)
{
	uint8_t data;
	__asm __volatile("inb %w1,%0" : "=a" (data) : "d" (port));
  80042009b8:	8b 45 f4             	mov    -0xc(%rbp),%eax
  80042009bb:	89 c2                	mov    %eax,%edx
  80042009bd:	ec                   	in     (%dx),%al
  80042009be:	88 45 f3             	mov    %al,-0xd(%rbp)
	return data;
  80042009c1:	0f b6 45 f3          	movzbl -0xd(%rbp),%eax
	int c;
	uint8_t data;
	static uint32_t shift;
	int r;
	if ((inb(KBSTATP) & KBS_DIB) == 0)
  80042009c5:	0f b6 c0             	movzbl %al,%eax
  80042009c8:	83 e0 01             	and    $0x1,%eax
  80042009cb:	85 c0                	test   %eax,%eax
  80042009cd:	75 0a                	jne    80042009d9 <kbd_proc_data+0x30>
		return -1;
  80042009cf:	b8 ff ff ff ff       	mov    $0xffffffff,%eax
  80042009d4:	e9 fc 01 00 00       	jmpq   8004200bd5 <kbd_proc_data+0x22c>
  80042009d9:	c7 45 ec 60 00 00 00 	movl   $0x60,-0x14(%rbp)

static __inline uint8_t
inb(int port)
{
	uint8_t data;
	__asm __volatile("inb %w1,%0" : "=a" (data) : "d" (port));
  80042009e0:	8b 45 ec             	mov    -0x14(%rbp),%eax
  80042009e3:	89 c2                	mov    %eax,%edx
  80042009e5:	ec                   	in     (%dx),%al
  80042009e6:	88 45 eb             	mov    %al,-0x15(%rbp)
	return data;
  80042009e9:	0f b6 45 eb          	movzbl -0x15(%rbp),%eax

	data = inb(KBDATAP);
  80042009ed:	88 45 fb             	mov    %al,-0x5(%rbp)

	if (data == 0xE0) {
  80042009f0:	80 7d fb e0          	cmpb   $0xe0,-0x5(%rbp)
  80042009f4:	75 27                	jne    8004200a1d <kbd_proc_data+0x74>
		// E0 escape character
		shift |= E0ESC;
  80042009f6:	48 b8 c8 28 22 04 80 	movabs $0x80042228c8,%rax
  80042009fd:	00 00 00 
  8004200a00:	8b 00                	mov    (%rax),%eax
  8004200a02:	83 c8 40             	or     $0x40,%eax
  8004200a05:	89 c2                	mov    %eax,%edx
  8004200a07:	48 b8 c8 28 22 04 80 	movabs $0x80042228c8,%rax
  8004200a0e:	00 00 00 
  8004200a11:	89 10                	mov    %edx,(%rax)
		return 0;
  8004200a13:	b8 00 00 00 00       	mov    $0x0,%eax
  8004200a18:	e9 b8 01 00 00       	jmpq   8004200bd5 <kbd_proc_data+0x22c>
	} else if (data & 0x80) {
  8004200a1d:	0f b6 45 fb          	movzbl -0x5(%rbp),%eax
  8004200a21:	84 c0                	test   %al,%al
  8004200a23:	79 65                	jns    8004200a8a <kbd_proc_data+0xe1>
		// Key released
		data = (shift & E0ESC ? data : data & 0x7F);
  8004200a25:	48 b8 c8 28 22 04 80 	movabs $0x80042228c8,%rax
  8004200a2c:	00 00 00 
  8004200a2f:	8b 00                	mov    (%rax),%eax
  8004200a31:	83 e0 40             	and    $0x40,%eax
  8004200a34:	85 c0                	test   %eax,%eax
  8004200a36:	75 09                	jne    8004200a41 <kbd_proc_data+0x98>
  8004200a38:	0f b6 45 fb          	movzbl -0x5(%rbp),%eax
  8004200a3c:	83 e0 7f             	and    $0x7f,%eax
  8004200a3f:	eb 04                	jmp    8004200a45 <kbd_proc_data+0x9c>
  8004200a41:	0f b6 45 fb          	movzbl -0x5(%rbp),%eax
  8004200a45:	88 45 fb             	mov    %al,-0x5(%rbp)
		shift &= ~(shiftcode[data] | E0ESC);
  8004200a48:	0f b6 45 fb          	movzbl -0x5(%rbp),%eax
  8004200a4c:	48 ba 60 20 22 04 80 	movabs $0x8004222060,%rdx
  8004200a53:	00 00 00 
  8004200a56:	48 98                	cltq   
  8004200a58:	0f b6 04 02          	movzbl (%rdx,%rax,1),%eax
  8004200a5c:	83 c8 40             	or     $0x40,%eax
  8004200a5f:	0f b6 c0             	movzbl %al,%eax
  8004200a62:	f7 d0                	not    %eax
  8004200a64:	89 c2                	mov    %eax,%edx
  8004200a66:	48 b8 c8 28 22 04 80 	movabs $0x80042228c8,%rax
  8004200a6d:	00 00 00 
  8004200a70:	8b 00                	mov    (%rax),%eax
  8004200a72:	21 c2                	and    %eax,%edx
  8004200a74:	48 b8 c8 28 22 04 80 	movabs $0x80042228c8,%rax
  8004200a7b:	00 00 00 
  8004200a7e:	89 10                	mov    %edx,(%rax)
		return 0;
  8004200a80:	b8 00 00 00 00       	mov    $0x0,%eax
  8004200a85:	e9 4b 01 00 00       	jmpq   8004200bd5 <kbd_proc_data+0x22c>
	} else if (shift & E0ESC) {
  8004200a8a:	48 b8 c8 28 22 04 80 	movabs $0x80042228c8,%rax
  8004200a91:	00 00 00 
  8004200a94:	8b 00                	mov    (%rax),%eax
  8004200a96:	83 e0 40             	and    $0x40,%eax
  8004200a99:	85 c0                	test   %eax,%eax
  8004200a9b:	74 21                	je     8004200abe <kbd_proc_data+0x115>
		// Last character was an E0 escape; or with 0x80
		data |= 0x80;
  8004200a9d:	80 4d fb 80          	orb    $0x80,-0x5(%rbp)
		shift &= ~E0ESC;
  8004200aa1:	48 b8 c8 28 22 04 80 	movabs $0x80042228c8,%rax
  8004200aa8:	00 00 00 
  8004200aab:	8b 00                	mov    (%rax),%eax
  8004200aad:	83 e0 bf             	and    $0xffffffbf,%eax
  8004200ab0:	89 c2                	mov    %eax,%edx
  8004200ab2:	48 b8 c8 28 22 04 80 	movabs $0x80042228c8,%rax
  8004200ab9:	00 00 00 
  8004200abc:	89 10                	mov    %edx,(%rax)
	}

	shift |= shiftcode[data];
  8004200abe:	0f b6 45 fb          	movzbl -0x5(%rbp),%eax
  8004200ac2:	48 ba 60 20 22 04 80 	movabs $0x8004222060,%rdx
  8004200ac9:	00 00 00 
  8004200acc:	48 98                	cltq   
  8004200ace:	0f b6 04 02          	movzbl (%rdx,%rax,1),%eax
  8004200ad2:	0f b6 d0             	movzbl %al,%edx
  8004200ad5:	48 b8 c8 28 22 04 80 	movabs $0x80042228c8,%rax
  8004200adc:	00 00 00 
  8004200adf:	8b 00                	mov    (%rax),%eax
  8004200ae1:	09 c2                	or     %eax,%edx
  8004200ae3:	48 b8 c8 28 22 04 80 	movabs $0x80042228c8,%rax
  8004200aea:	00 00 00 
  8004200aed:	89 10                	mov    %edx,(%rax)
	shift ^= togglecode[data];
  8004200aef:	0f b6 45 fb          	movzbl -0x5(%rbp),%eax
  8004200af3:	48 ba 60 21 22 04 80 	movabs $0x8004222160,%rdx
  8004200afa:	00 00 00 
  8004200afd:	48 98                	cltq   
  8004200aff:	0f b6 04 02          	movzbl (%rdx,%rax,1),%eax
  8004200b03:	0f b6 d0             	movzbl %al,%edx
  8004200b06:	48 b8 c8 28 22 04 80 	movabs $0x80042228c8,%rax
  8004200b0d:	00 00 00 
  8004200b10:	8b 00                	mov    (%rax),%eax
  8004200b12:	31 c2                	xor    %eax,%edx
  8004200b14:	48 b8 c8 28 22 04 80 	movabs $0x80042228c8,%rax
  8004200b1b:	00 00 00 
  8004200b1e:	89 10                	mov    %edx,(%rax)

	c = charcode[shift & (CTL | SHIFT)][data];
  8004200b20:	48 b8 c8 28 22 04 80 	movabs $0x80042228c8,%rax
  8004200b27:	00 00 00 
  8004200b2a:	8b 00                	mov    (%rax),%eax
  8004200b2c:	83 e0 03             	and    $0x3,%eax
  8004200b2f:	89 c2                	mov    %eax,%edx
  8004200b31:	48 b8 60 25 22 04 80 	movabs $0x8004222560,%rax
  8004200b38:	00 00 00 
  8004200b3b:	89 d2                	mov    %edx,%edx
  8004200b3d:	48 8b 14 d0          	mov    (%rax,%rdx,8),%rdx
  8004200b41:	0f b6 45 fb          	movzbl -0x5(%rbp),%eax
  8004200b45:	48 01 d0             	add    %rdx,%rax
  8004200b48:	0f b6 00             	movzbl (%rax),%eax
  8004200b4b:	0f b6 c0             	movzbl %al,%eax
  8004200b4e:	89 45 fc             	mov    %eax,-0x4(%rbp)
	if (shift & CAPSLOCK) {
  8004200b51:	48 b8 c8 28 22 04 80 	movabs $0x80042228c8,%rax
  8004200b58:	00 00 00 
  8004200b5b:	8b 00                	mov    (%rax),%eax
  8004200b5d:	83 e0 08             	and    $0x8,%eax
  8004200b60:	85 c0                	test   %eax,%eax
  8004200b62:	74 22                	je     8004200b86 <kbd_proc_data+0x1dd>
		if ('a' <= c && c <= 'z')
  8004200b64:	83 7d fc 60          	cmpl   $0x60,-0x4(%rbp)
  8004200b68:	7e 0c                	jle    8004200b76 <kbd_proc_data+0x1cd>
  8004200b6a:	83 7d fc 7a          	cmpl   $0x7a,-0x4(%rbp)
  8004200b6e:	7f 06                	jg     8004200b76 <kbd_proc_data+0x1cd>
			c += 'A' - 'a';
  8004200b70:	83 6d fc 20          	subl   $0x20,-0x4(%rbp)
  8004200b74:	eb 10                	jmp    8004200b86 <kbd_proc_data+0x1dd>
		else if ('A' <= c && c <= 'Z')
  8004200b76:	83 7d fc 40          	cmpl   $0x40,-0x4(%rbp)
  8004200b7a:	7e 0a                	jle    8004200b86 <kbd_proc_data+0x1dd>
  8004200b7c:	83 7d fc 5a          	cmpl   $0x5a,-0x4(%rbp)
  8004200b80:	7f 04                	jg     8004200b86 <kbd_proc_data+0x1dd>
			c += 'a' - 'A';
  8004200b82:	83 45 fc 20          	addl   $0x20,-0x4(%rbp)
	}

	// Process special keys
	// Ctrl-Alt-Del: reboot
	if (!(~shift & (CTL | ALT)) && c == KEY_DEL) {
  8004200b86:	48 b8 c8 28 22 04 80 	movabs $0x80042228c8,%rax
  8004200b8d:	00 00 00 
  8004200b90:	8b 00                	mov    (%rax),%eax
  8004200b92:	f7 d0                	not    %eax
  8004200b94:	83 e0 06             	and    $0x6,%eax
  8004200b97:	85 c0                	test   %eax,%eax
  8004200b99:	75 37                	jne    8004200bd2 <kbd_proc_data+0x229>
  8004200b9b:	81 7d fc e9 00 00 00 	cmpl   $0xe9,-0x4(%rbp)
  8004200ba2:	75 2e                	jne    8004200bd2 <kbd_proc_data+0x229>
		cprintf("Rebooting!\n");
  8004200ba4:	48 bf ef e3 20 04 80 	movabs $0x800420e3ef,%rdi
  8004200bab:	00 00 00 
  8004200bae:	b8 00 00 00 00       	mov    $0x0,%eax
  8004200bb3:	48 ba 50 64 20 04 80 	movabs $0x8004206450,%rdx
  8004200bba:	00 00 00 
  8004200bbd:	ff d2                	callq  *%rdx
  8004200bbf:	c7 45 e4 92 00 00 00 	movl   $0x92,-0x1c(%rbp)
  8004200bc6:	c6 45 e3 03          	movb   $0x3,-0x1d(%rbp)
}

static __inline void
outb(int port, uint8_t data)
{
	__asm __volatile("outb %0,%w1" : : "a" (data), "d" (port));
  8004200bca:	0f b6 45 e3          	movzbl -0x1d(%rbp),%eax
  8004200bce:	8b 55 e4             	mov    -0x1c(%rbp),%edx
  8004200bd1:	ee                   	out    %al,(%dx)
		outb(0x92, 0x3); // courtesy of Chris Frost
	}
	return c;
  8004200bd2:	8b 45 fc             	mov    -0x4(%rbp),%eax
}
  8004200bd5:	c9                   	leaveq 
  8004200bd6:	c3                   	retq   

0000008004200bd7 <kbd_intr>:

void
kbd_intr(void)
{
  8004200bd7:	55                   	push   %rbp
  8004200bd8:	48 89 e5             	mov    %rsp,%rbp
	cons_intr(kbd_proc_data);
  8004200bdb:	48 bf a9 09 20 04 80 	movabs $0x80042009a9,%rdi
  8004200be2:	00 00 00 
  8004200be5:	48 b8 f9 0b 20 04 80 	movabs $0x8004200bf9,%rax
  8004200bec:	00 00 00 
  8004200bef:	ff d0                	callq  *%rax
}
  8004200bf1:	5d                   	pop    %rbp
  8004200bf2:	c3                   	retq   

0000008004200bf3 <kbd_init>:

static void
kbd_init(void)
{
  8004200bf3:	55                   	push   %rbp
  8004200bf4:	48 89 e5             	mov    %rsp,%rbp
}
  8004200bf7:	5d                   	pop    %rbp
  8004200bf8:	c3                   	retq   

0000008004200bf9 <cons_intr>:

// called by device interrupt routines to feed input characters
// into the circular console input buffer.
static void
cons_intr(int (*proc)(void))
{
  8004200bf9:	55                   	push   %rbp
  8004200bfa:	48 89 e5             	mov    %rsp,%rbp
  8004200bfd:	48 83 ec 20          	sub    $0x20,%rsp
  8004200c01:	48 89 7d e8          	mov    %rdi,-0x18(%rbp)
	int c;

	while ((c = (*proc)()) != -1) {
  8004200c05:	eb 6a                	jmp    8004200c71 <cons_intr+0x78>
		if (c == 0)
  8004200c07:	83 7d fc 00          	cmpl   $0x0,-0x4(%rbp)
  8004200c0b:	75 02                	jne    8004200c0f <cons_intr+0x16>
			continue;
  8004200c0d:	eb 62                	jmp    8004200c71 <cons_intr+0x78>
		cons.buf[cons.wpos++] = c;
  8004200c0f:	48 b8 c0 26 22 04 80 	movabs $0x80042226c0,%rax
  8004200c16:	00 00 00 
  8004200c19:	8b 80 04 02 00 00    	mov    0x204(%rax),%eax
  8004200c1f:	8d 48 01             	lea    0x1(%rax),%ecx
  8004200c22:	48 ba c0 26 22 04 80 	movabs $0x80042226c0,%rdx
  8004200c29:	00 00 00 
  8004200c2c:	89 8a 04 02 00 00    	mov    %ecx,0x204(%rdx)
  8004200c32:	8b 55 fc             	mov    -0x4(%rbp),%edx
  8004200c35:	89 d1                	mov    %edx,%ecx
  8004200c37:	48 ba c0 26 22 04 80 	movabs $0x80042226c0,%rdx
  8004200c3e:	00 00 00 
  8004200c41:	89 c0                	mov    %eax,%eax
  8004200c43:	88 0c 02             	mov    %cl,(%rdx,%rax,1)
		if (cons.wpos == CONSBUFSIZE)
  8004200c46:	48 b8 c0 26 22 04 80 	movabs $0x80042226c0,%rax
  8004200c4d:	00 00 00 
  8004200c50:	8b 80 04 02 00 00    	mov    0x204(%rax),%eax
  8004200c56:	3d 00 02 00 00       	cmp    $0x200,%eax
  8004200c5b:	75 14                	jne    8004200c71 <cons_intr+0x78>
			cons.wpos = 0;
  8004200c5d:	48 b8 c0 26 22 04 80 	movabs $0x80042226c0,%rax
  8004200c64:	00 00 00 
  8004200c67:	c7 80 04 02 00 00 00 	movl   $0x0,0x204(%rax)
  8004200c6e:	00 00 00 
static void
cons_intr(int (*proc)(void))
{
	int c;

	while ((c = (*proc)()) != -1) {
  8004200c71:	48 8b 45 e8          	mov    -0x18(%rbp),%rax
  8004200c75:	ff d0                	callq  *%rax
  8004200c77:	89 45 fc             	mov    %eax,-0x4(%rbp)
  8004200c7a:	83 7d fc ff          	cmpl   $0xffffffff,-0x4(%rbp)
  8004200c7e:	75 87                	jne    8004200c07 <cons_intr+0xe>
			continue;
		cons.buf[cons.wpos++] = c;
		if (cons.wpos == CONSBUFSIZE)
			cons.wpos = 0;
	}
}
  8004200c80:	c9                   	leaveq 
  8004200c81:	c3                   	retq   

0000008004200c82 <cons_getc>:

// return the next input character from the console, or 0 if none waiting
int
cons_getc(void)
{
  8004200c82:	55                   	push   %rbp
  8004200c83:	48 89 e5             	mov    %rsp,%rbp
  8004200c86:	48 83 ec 10          	sub    $0x10,%rsp
	int c;

	// poll for any pending input characters,
	// so that this function works even when interrupts are disabled
	// (e.g., when called from the kernel monitor).
	serial_intr();
  8004200c8a:	48 b8 bc 03 20 04 80 	movabs $0x80042003bc,%rax
  8004200c91:	00 00 00 
  8004200c94:	ff d0                	callq  *%rax
	kbd_intr();
  8004200c96:	48 b8 d7 0b 20 04 80 	movabs $0x8004200bd7,%rax
  8004200c9d:	00 00 00 
  8004200ca0:	ff d0                	callq  *%rax

	// grab the next character from the input buffer.
	if (cons.rpos != cons.wpos) {
  8004200ca2:	48 b8 c0 26 22 04 80 	movabs $0x80042226c0,%rax
  8004200ca9:	00 00 00 
  8004200cac:	8b 90 00 02 00 00    	mov    0x200(%rax),%edx
  8004200cb2:	48 b8 c0 26 22 04 80 	movabs $0x80042226c0,%rax
  8004200cb9:	00 00 00 
  8004200cbc:	8b 80 04 02 00 00    	mov    0x204(%rax),%eax
  8004200cc2:	39 c2                	cmp    %eax,%edx
  8004200cc4:	74 69                	je     8004200d2f <cons_getc+0xad>
		c = cons.buf[cons.rpos++];
  8004200cc6:	48 b8 c0 26 22 04 80 	movabs $0x80042226c0,%rax
  8004200ccd:	00 00 00 
  8004200cd0:	8b 80 00 02 00 00    	mov    0x200(%rax),%eax
  8004200cd6:	8d 48 01             	lea    0x1(%rax),%ecx
  8004200cd9:	48 ba c0 26 22 04 80 	movabs $0x80042226c0,%rdx
  8004200ce0:	00 00 00 
  8004200ce3:	89 8a 00 02 00 00    	mov    %ecx,0x200(%rdx)
  8004200ce9:	48 ba c0 26 22 04 80 	movabs $0x80042226c0,%rdx
  8004200cf0:	00 00 00 
  8004200cf3:	89 c0                	mov    %eax,%eax
  8004200cf5:	0f b6 04 02          	movzbl (%rdx,%rax,1),%eax
  8004200cf9:	0f b6 c0             	movzbl %al,%eax
  8004200cfc:	89 45 fc             	mov    %eax,-0x4(%rbp)
		if (cons.rpos == CONSBUFSIZE)
  8004200cff:	48 b8 c0 26 22 04 80 	movabs $0x80042226c0,%rax
  8004200d06:	00 00 00 
  8004200d09:	8b 80 00 02 00 00    	mov    0x200(%rax),%eax
  8004200d0f:	3d 00 02 00 00       	cmp    $0x200,%eax
  8004200d14:	75 14                	jne    8004200d2a <cons_getc+0xa8>
			cons.rpos = 0;
  8004200d16:	48 b8 c0 26 22 04 80 	movabs $0x80042226c0,%rax
  8004200d1d:	00 00 00 
  8004200d20:	c7 80 00 02 00 00 00 	movl   $0x0,0x200(%rax)
  8004200d27:	00 00 00 
		return c;
  8004200d2a:	8b 45 fc             	mov    -0x4(%rbp),%eax
  8004200d2d:	eb 05                	jmp    8004200d34 <cons_getc+0xb2>
	}
	return 0;
  8004200d2f:	b8 00 00 00 00       	mov    $0x0,%eax
}
  8004200d34:	c9                   	leaveq 
  8004200d35:	c3                   	retq   

0000008004200d36 <cons_putc>:

// output a character to the console
static void
cons_putc(int c)
{
  8004200d36:	55                   	push   %rbp
  8004200d37:	48 89 e5             	mov    %rsp,%rbp
  8004200d3a:	48 83 ec 10          	sub    $0x10,%rsp
  8004200d3e:	89 7d fc             	mov    %edi,-0x4(%rbp)
	serial_putc(c);
  8004200d41:	8b 45 fc             	mov    -0x4(%rbp),%eax
  8004200d44:	89 c7                	mov    %eax,%edi
  8004200d46:	48 b8 e9 03 20 04 80 	movabs $0x80042003e9,%rax
  8004200d4d:	00 00 00 
  8004200d50:	ff d0                	callq  *%rax
	lpt_putc(c);
  8004200d52:	8b 45 fc             	mov    -0x4(%rbp),%eax
  8004200d55:	89 c7                	mov    %eax,%edi
  8004200d57:	48 b8 22 05 20 04 80 	movabs $0x8004200522,%rax
  8004200d5e:	00 00 00 
  8004200d61:	ff d0                	callq  *%rax
	cga_putc(c);
  8004200d63:	8b 45 fc             	mov    -0x4(%rbp),%eax
  8004200d66:	89 c7                	mov    %eax,%edi
  8004200d68:	48 b8 c1 06 20 04 80 	movabs $0x80042006c1,%rax
  8004200d6f:	00 00 00 
  8004200d72:	ff d0                	callq  *%rax
}
  8004200d74:	c9                   	leaveq 
  8004200d75:	c3                   	retq   

0000008004200d76 <cons_init>:

// initialize the console devices
void
cons_init(void)
{
  8004200d76:	55                   	push   %rbp
  8004200d77:	48 89 e5             	mov    %rsp,%rbp
	cga_init();
  8004200d7a:	48 b8 a7 05 20 04 80 	movabs $0x80042005a7,%rax
  8004200d81:	00 00 00 
  8004200d84:	ff d0                	callq  *%rax
	kbd_init();
  8004200d86:	48 b8 f3 0b 20 04 80 	movabs $0x8004200bf3,%rax
  8004200d8d:	00 00 00 
  8004200d90:	ff d0                	callq  *%rax
	serial_init();
  8004200d92:	48 b8 4e 04 20 04 80 	movabs $0x800420044e,%rax
  8004200d99:	00 00 00 
  8004200d9c:	ff d0                	callq  *%rax

	if (!serial_exists)
  8004200d9e:	48 b8 a0 26 22 04 80 	movabs $0x80042226a0,%rax
  8004200da5:	00 00 00 
  8004200da8:	0f b6 00             	movzbl (%rax),%eax
  8004200dab:	83 f0 01             	xor    $0x1,%eax
  8004200dae:	84 c0                	test   %al,%al
  8004200db0:	74 1b                	je     8004200dcd <cons_init+0x57>
		cprintf("Serial port does not exist!\n");
  8004200db2:	48 bf fb e3 20 04 80 	movabs $0x800420e3fb,%rdi
  8004200db9:	00 00 00 
  8004200dbc:	b8 00 00 00 00       	mov    $0x0,%eax
  8004200dc1:	48 ba 50 64 20 04 80 	movabs $0x8004206450,%rdx
  8004200dc8:	00 00 00 
  8004200dcb:	ff d2                	callq  *%rdx
}
  8004200dcd:	5d                   	pop    %rbp
  8004200dce:	c3                   	retq   

0000008004200dcf <cputchar>:

// `High'-level console I/O.  Used by readline and cprintf.

void
cputchar(int c)
{
  8004200dcf:	55                   	push   %rbp
  8004200dd0:	48 89 e5             	mov    %rsp,%rbp
  8004200dd3:	48 83 ec 10          	sub    $0x10,%rsp
  8004200dd7:	89 7d fc             	mov    %edi,-0x4(%rbp)
	cons_putc(c);
  8004200dda:	8b 45 fc             	mov    -0x4(%rbp),%eax
  8004200ddd:	89 c7                	mov    %eax,%edi
  8004200ddf:	48 b8 36 0d 20 04 80 	movabs $0x8004200d36,%rax
  8004200de6:	00 00 00 
  8004200de9:	ff d0                	callq  *%rax
}
  8004200deb:	c9                   	leaveq 
  8004200dec:	c3                   	retq   

0000008004200ded <getchar>:

int
getchar(void)
{
  8004200ded:	55                   	push   %rbp
  8004200dee:	48 89 e5             	mov    %rsp,%rbp
  8004200df1:	48 83 ec 10          	sub    $0x10,%rsp
	int c;

	while ((c = cons_getc()) == 0)
  8004200df5:	48 b8 82 0c 20 04 80 	movabs $0x8004200c82,%rax
  8004200dfc:	00 00 00 
  8004200dff:	ff d0                	callq  *%rax
  8004200e01:	89 45 fc             	mov    %eax,-0x4(%rbp)
  8004200e04:	83 7d fc 00          	cmpl   $0x0,-0x4(%rbp)
  8004200e08:	74 eb                	je     8004200df5 <getchar+0x8>
		/* do nothing */;
	return c;
  8004200e0a:	8b 45 fc             	mov    -0x4(%rbp),%eax
}
  8004200e0d:	c9                   	leaveq 
  8004200e0e:	c3                   	retq   

0000008004200e0f <iscons>:

int
iscons(int fdnum)
{
  8004200e0f:	55                   	push   %rbp
  8004200e10:	48 89 e5             	mov    %rsp,%rbp
  8004200e13:	48 83 ec 04          	sub    $0x4,%rsp
  8004200e17:	89 7d fc             	mov    %edi,-0x4(%rbp)
	// used by readline
	return 1;
  8004200e1a:	b8 01 00 00 00       	mov    $0x1,%eax
}
  8004200e1f:	c9                   	leaveq 
  8004200e20:	c3                   	retq   

0000008004200e21 <mon_help>:

/***** Implementations of basic kernel monitor commands *****/

int
mon_help(int argc, char **argv, struct Trapframe *tf)
{
  8004200e21:	55                   	push   %rbp
  8004200e22:	48 89 e5             	mov    %rsp,%rbp
  8004200e25:	48 83 ec 30          	sub    $0x30,%rsp
  8004200e29:	89 7d ec             	mov    %edi,-0x14(%rbp)
  8004200e2c:	48 89 75 e0          	mov    %rsi,-0x20(%rbp)
  8004200e30:	48 89 55 d8          	mov    %rdx,-0x28(%rbp)
    int i;

    for (i = 0; i < NCOMMANDS; i++)
  8004200e34:	c7 45 fc 00 00 00 00 	movl   $0x0,-0x4(%rbp)
  8004200e3b:	eb 6c                	jmp    8004200ea9 <mon_help+0x88>
        cprintf("%s - %s\n", commands[i].name, commands[i].desc);
  8004200e3d:	48 b9 80 25 22 04 80 	movabs $0x8004222580,%rcx
  8004200e44:	00 00 00 
  8004200e47:	8b 45 fc             	mov    -0x4(%rbp),%eax
  8004200e4a:	48 63 d0             	movslq %eax,%rdx
  8004200e4d:	48 89 d0             	mov    %rdx,%rax
  8004200e50:	48 01 c0             	add    %rax,%rax
  8004200e53:	48 01 d0             	add    %rdx,%rax
  8004200e56:	48 c1 e0 03          	shl    $0x3,%rax
  8004200e5a:	48 01 c8             	add    %rcx,%rax
  8004200e5d:	48 8b 48 08          	mov    0x8(%rax),%rcx
  8004200e61:	48 be 80 25 22 04 80 	movabs $0x8004222580,%rsi
  8004200e68:	00 00 00 
  8004200e6b:	8b 45 fc             	mov    -0x4(%rbp),%eax
  8004200e6e:	48 63 d0             	movslq %eax,%rdx
  8004200e71:	48 89 d0             	mov    %rdx,%rax
  8004200e74:	48 01 c0             	add    %rax,%rax
  8004200e77:	48 01 d0             	add    %rdx,%rax
  8004200e7a:	48 c1 e0 03          	shl    $0x3,%rax
  8004200e7e:	48 01 f0             	add    %rsi,%rax
  8004200e81:	48 8b 00             	mov    (%rax),%rax
  8004200e84:	48 89 ca             	mov    %rcx,%rdx
  8004200e87:	48 89 c6             	mov    %rax,%rsi
  8004200e8a:	48 bf 87 e4 20 04 80 	movabs $0x800420e487,%rdi
  8004200e91:	00 00 00 
  8004200e94:	b8 00 00 00 00       	mov    $0x0,%eax
  8004200e99:	48 b9 50 64 20 04 80 	movabs $0x8004206450,%rcx
  8004200ea0:	00 00 00 
  8004200ea3:	ff d1                	callq  *%rcx
int
mon_help(int argc, char **argv, struct Trapframe *tf)
{
    int i;

    for (i = 0; i < NCOMMANDS; i++)
  8004200ea5:	83 45 fc 01          	addl   $0x1,-0x4(%rbp)
  8004200ea9:	8b 45 fc             	mov    -0x4(%rbp),%eax
  8004200eac:	83 f8 02             	cmp    $0x2,%eax
  8004200eaf:	76 8c                	jbe    8004200e3d <mon_help+0x1c>
        cprintf("%s - %s\n", commands[i].name, commands[i].desc);
    return 0;
  8004200eb1:	b8 00 00 00 00       	mov    $0x0,%eax
}
  8004200eb6:	c9                   	leaveq 
  8004200eb7:	c3                   	retq   

0000008004200eb8 <mon_kerninfo>:

int
mon_kerninfo(int argc, char **argv, struct Trapframe *tf)
{
  8004200eb8:	55                   	push   %rbp
  8004200eb9:	48 89 e5             	mov    %rsp,%rbp
  8004200ebc:	48 83 ec 30          	sub    $0x30,%rsp
  8004200ec0:	89 7d ec             	mov    %edi,-0x14(%rbp)
  8004200ec3:	48 89 75 e0          	mov    %rsi,-0x20(%rbp)
  8004200ec7:	48 89 55 d8          	mov    %rdx,-0x28(%rbp)
    extern char _start[], entry[], etext[], edata[], end[];

    cprintf("Special kernel symbols:\n");
  8004200ecb:	48 bf 90 e4 20 04 80 	movabs $0x800420e490,%rdi
  8004200ed2:	00 00 00 
  8004200ed5:	b8 00 00 00 00       	mov    $0x0,%eax
  8004200eda:	48 ba 50 64 20 04 80 	movabs $0x8004206450,%rdx
  8004200ee1:	00 00 00 
  8004200ee4:	ff d2                	callq  *%rdx
    cprintf("  _start                  %08x (phys)\n", _start);
  8004200ee6:	48 be 0c 00 20 00 00 	movabs $0x20000c,%rsi
  8004200eed:	00 00 00 
  8004200ef0:	48 bf b0 e4 20 04 80 	movabs $0x800420e4b0,%rdi
  8004200ef7:	00 00 00 
  8004200efa:	b8 00 00 00 00       	mov    $0x0,%eax
  8004200eff:	48 ba 50 64 20 04 80 	movabs $0x8004206450,%rdx
  8004200f06:	00 00 00 
  8004200f09:	ff d2                	callq  *%rdx
    cprintf("  entry  %08x (virt)  %08x (phys)\n", entry, entry - KERNBASE);
  8004200f0b:	48 ba 0c 00 20 00 00 	movabs $0x20000c,%rdx
  8004200f12:	00 00 00 
  8004200f15:	48 be 0c 00 20 04 80 	movabs $0x800420000c,%rsi
  8004200f1c:	00 00 00 
  8004200f1f:	48 bf d8 e4 20 04 80 	movabs $0x800420e4d8,%rdi
  8004200f26:	00 00 00 
  8004200f29:	b8 00 00 00 00       	mov    $0x0,%eax
  8004200f2e:	48 b9 50 64 20 04 80 	movabs $0x8004206450,%rcx
  8004200f35:	00 00 00 
  8004200f38:	ff d1                	callq  *%rcx
    cprintf("  etext  %08x (virt)  %08x (phys)\n", etext, etext - KERNBASE);
  8004200f3a:	48 ba 89 e3 20 00 00 	movabs $0x20e389,%rdx
  8004200f41:	00 00 00 
  8004200f44:	48 be 89 e3 20 04 80 	movabs $0x800420e389,%rsi
  8004200f4b:	00 00 00 
  8004200f4e:	48 bf 00 e5 20 04 80 	movabs $0x800420e500,%rdi
  8004200f55:	00 00 00 
  8004200f58:	b8 00 00 00 00       	mov    $0x0,%eax
  8004200f5d:	48 b9 50 64 20 04 80 	movabs $0x8004206450,%rcx
  8004200f64:	00 00 00 
  8004200f67:	ff d1                	callq  *%rcx
    cprintf("  edata  %08x (virt)  %08x (phys)\n", edata, edata - KERNBASE);
  8004200f69:	48 ba a0 26 22 00 00 	movabs $0x2226a0,%rdx
  8004200f70:	00 00 00 
  8004200f73:	48 be a0 26 22 04 80 	movabs $0x80042226a0,%rsi
  8004200f7a:	00 00 00 
  8004200f7d:	48 bf 28 e5 20 04 80 	movabs $0x800420e528,%rdi
  8004200f84:	00 00 00 
  8004200f87:	b8 00 00 00 00       	mov    $0x0,%eax
  8004200f8c:	48 b9 50 64 20 04 80 	movabs $0x8004206450,%rcx
  8004200f93:	00 00 00 
  8004200f96:	ff d1                	callq  *%rcx
    cprintf("  end    %08x (virt)  %08x (phys)\n", end, end - KERNBASE);
  8004200f98:	48 ba 80 3d 22 00 00 	movabs $0x223d80,%rdx
  8004200f9f:	00 00 00 
  8004200fa2:	48 be 80 3d 22 04 80 	movabs $0x8004223d80,%rsi
  8004200fa9:	00 00 00 
  8004200fac:	48 bf 50 e5 20 04 80 	movabs $0x800420e550,%rdi
  8004200fb3:	00 00 00 
  8004200fb6:	b8 00 00 00 00       	mov    $0x0,%eax
  8004200fbb:	48 b9 50 64 20 04 80 	movabs $0x8004206450,%rcx
  8004200fc2:	00 00 00 
  8004200fc5:	ff d1                	callq  *%rcx
    cprintf("Kernel executable memory footprint: %dKB\n",
            ROUNDUP(end - entry, 1024) / 1024);
  8004200fc7:	48 c7 45 f8 00 04 00 	movq   $0x400,-0x8(%rbp)
  8004200fce:	00 
  8004200fcf:	48 b8 0c 00 20 04 80 	movabs $0x800420000c,%rax
  8004200fd6:	00 00 00 
  8004200fd9:	48 8b 55 f8          	mov    -0x8(%rbp),%rdx
  8004200fdd:	48 29 c2             	sub    %rax,%rdx
  8004200fe0:	48 b8 80 3d 22 04 80 	movabs $0x8004223d80,%rax
  8004200fe7:	00 00 00 
  8004200fea:	48 83 e8 01          	sub    $0x1,%rax
  8004200fee:	48 01 d0             	add    %rdx,%rax
  8004200ff1:	48 89 45 f0          	mov    %rax,-0x10(%rbp)
  8004200ff5:	48 8b 45 f0          	mov    -0x10(%rbp),%rax
  8004200ff9:	ba 00 00 00 00       	mov    $0x0,%edx
  8004200ffe:	48 f7 75 f8          	divq   -0x8(%rbp)
  8004201002:	48 89 d0             	mov    %rdx,%rax
  8004201005:	48 8b 55 f0          	mov    -0x10(%rbp),%rdx
  8004201009:	48 29 c2             	sub    %rax,%rdx
  800420100c:	48 89 d0             	mov    %rdx,%rax
    cprintf("  _start                  %08x (phys)\n", _start);
    cprintf("  entry  %08x (virt)  %08x (phys)\n", entry, entry - KERNBASE);
    cprintf("  etext  %08x (virt)  %08x (phys)\n", etext, etext - KERNBASE);
    cprintf("  edata  %08x (virt)  %08x (phys)\n", edata, edata - KERNBASE);
    cprintf("  end    %08x (virt)  %08x (phys)\n", end, end - KERNBASE);
    cprintf("Kernel executable memory footprint: %dKB\n",
  800420100f:	48 8d 90 ff 03 00 00 	lea    0x3ff(%rax),%rdx
  8004201016:	48 85 c0             	test   %rax,%rax
  8004201019:	48 0f 48 c2          	cmovs  %rdx,%rax
  800420101d:	48 c1 f8 0a          	sar    $0xa,%rax
  8004201021:	48 89 c6             	mov    %rax,%rsi
  8004201024:	48 bf 78 e5 20 04 80 	movabs $0x800420e578,%rdi
  800420102b:	00 00 00 
  800420102e:	b8 00 00 00 00       	mov    $0x0,%eax
  8004201033:	48 ba 50 64 20 04 80 	movabs $0x8004206450,%rdx
  800420103a:	00 00 00 
  800420103d:	ff d2                	callq  *%rdx
            ROUNDUP(end - entry, 1024) / 1024);
    return 0;
  800420103f:	b8 00 00 00 00       	mov    $0x0,%eax
}
  8004201044:	c9                   	leaveq 
  8004201045:	c3                   	retq   

0000008004201046 <mon_backtrace>:

int
mon_backtrace(int argc, char **argv, struct Trapframe *tf)
{
  8004201046:	55                   	push   %rbp
  8004201047:	48 89 e5             	mov    %rsp,%rbp
  800420104a:	48 81 ec 20 05 00 00 	sub    $0x520,%rsp
  8004201051:	89 bd fc fa ff ff    	mov    %edi,-0x504(%rbp)
  8004201057:	48 89 b5 f0 fa ff ff 	mov    %rsi,-0x510(%rbp)
  800420105e:	48 89 95 e8 fa ff ff 	mov    %rdx,-0x518(%rbp)

static __inline uint64_t
read_rbp(void)
{
	uint64_t rbp;
	__asm __volatile("movq %%rbp,%0" : "=r" (rbp)::"cc","memory");
  8004201065:	48 89 e8             	mov    %rbp,%rax
  8004201068:	48 89 45 e0          	mov    %rax,-0x20(%rbp)
	return rbp;
  800420106c:	48 8b 45 e0          	mov    -0x20(%rbp),%rax
    // Your code here.
    // read register base pointer
    uint64_t *rbp = (uint64_t *)read_rbp();
  8004201070:	48 89 45 f8          	mov    %rax,-0x8(%rbp)
    uint64_t rip;
    read_rip(rip);
  8004201074:	48 8d 05 00 00 00 00 	lea    0x0(%rip),%rax        # 420107b <_start+0x400106f>
  800420107b:	48 89 45 f0          	mov    %rax,-0x10(%rbp)
    cprintf("Stack backtrace: \n");
  800420107f:	48 bf a2 e5 20 04 80 	movabs $0x800420e5a2,%rdi
  8004201086:	00 00 00 
  8004201089:	b8 00 00 00 00       	mov    $0x0,%eax
  800420108e:	48 ba 50 64 20 04 80 	movabs $0x8004206450,%rdx
  8004201095:	00 00 00 
  8004201098:	ff d2                	callq  *%rdx

    do {

        cprintf("rbp %016x   rip %016x\n", rbp, rip);
  800420109a:	48 8b 55 f0          	mov    -0x10(%rbp),%rdx
  800420109e:	48 8b 45 f8          	mov    -0x8(%rbp),%rax
  80042010a2:	48 89 c6             	mov    %rax,%rsi
  80042010a5:	48 bf b5 e5 20 04 80 	movabs $0x800420e5b5,%rdi
  80042010ac:	00 00 00 
  80042010af:	b8 00 00 00 00       	mov    $0x0,%eax
  80042010b4:	48 b9 50 64 20 04 80 	movabs $0x8004206450,%rcx
  80042010bb:	00 00 00 
  80042010be:	ff d1                	callq  *%rcx
        struct Ripdebuginfo info;
        debuginfo_rip(rip, &info);
  80042010c0:	48 8d 95 00 fb ff ff 	lea    -0x500(%rbp),%rdx
  80042010c7:	48 8b 45 f0          	mov    -0x10(%rbp),%rax
  80042010cb:	48 89 d6             	mov    %rdx,%rsi
  80042010ce:	48 89 c7             	mov    %rax,%rdi
  80042010d1:	48 b8 d8 6c 20 04 80 	movabs $0x8004206cd8,%rax
  80042010d8:	00 00 00 
  80042010db:	ff d0                	callq  *%rax
        int offset=rip-info.rip_fn_addr;
  80042010dd:	48 8b 45 f0          	mov    -0x10(%rbp),%rax
  80042010e1:	89 c2                	mov    %eax,%edx
  80042010e3:	48 8b 85 20 fb ff ff 	mov    -0x4e0(%rbp),%rax
  80042010ea:	29 c2                	sub    %eax,%edx
  80042010ec:	89 d0                	mov    %edx,%eax
  80042010ee:	89 45 e8             	mov    %eax,-0x18(%rbp)
        cprintf(" %s:%d: %s+%016x ",info.rip_file, info.rip_line, info.rip_fn_name,offset);
  80042010f1:	48 8b 8d 10 fb ff ff 	mov    -0x4f0(%rbp),%rcx
  80042010f8:	8b 95 08 fb ff ff    	mov    -0x4f8(%rbp),%edx
  80042010fe:	48 8b 85 00 fb ff ff 	mov    -0x500(%rbp),%rax
  8004201105:	8b 75 e8             	mov    -0x18(%rbp),%esi
  8004201108:	41 89 f0             	mov    %esi,%r8d
  800420110b:	48 89 c6             	mov    %rax,%rsi
  800420110e:	48 bf cc e5 20 04 80 	movabs $0x800420e5cc,%rdi
  8004201115:	00 00 00 
  8004201118:	b8 00 00 00 00       	mov    $0x0,%eax
  800420111d:	49 b9 50 64 20 04 80 	movabs $0x8004206450,%r9
  8004201124:	00 00 00 
  8004201127:	41 ff d1             	callq  *%r9
        cprintf("args:%x ",info.rip_fn_narg);
  800420112a:	8b 85 28 fb ff ff    	mov    -0x4d8(%rbp),%eax
  8004201130:	89 c6                	mov    %eax,%esi
  8004201132:	48 bf de e5 20 04 80 	movabs $0x800420e5de,%rdi
  8004201139:	00 00 00 
  800420113c:	b8 00 00 00 00       	mov    $0x0,%eax
  8004201141:	48 ba 50 64 20 04 80 	movabs $0x8004206450,%rdx
  8004201148:	00 00 00 
  800420114b:	ff d2                	callq  *%rdx
        int i;
        for(i = 1; i <= info.rip_fn_narg; i++) {
  800420114d:	c7 45 ec 01 00 00 00 	movl   $0x1,-0x14(%rbp)
  8004201154:	eb 39                	jmp    800420118f <mon_backtrace+0x149>
            cprintf("%016x ", *((int *)(rbp) -i));
  8004201156:	8b 45 ec             	mov    -0x14(%rbp),%eax
  8004201159:	48 98                	cltq   
  800420115b:	48 c1 e0 02          	shl    $0x2,%rax
  800420115f:	48 f7 d8             	neg    %rax
  8004201162:	48 89 c2             	mov    %rax,%rdx
  8004201165:	48 8b 45 f8          	mov    -0x8(%rbp),%rax
  8004201169:	48 01 d0             	add    %rdx,%rax
  800420116c:	8b 00                	mov    (%rax),%eax
  800420116e:	89 c6                	mov    %eax,%esi
  8004201170:	48 bf e7 e5 20 04 80 	movabs $0x800420e5e7,%rdi
  8004201177:	00 00 00 
  800420117a:	b8 00 00 00 00       	mov    $0x0,%eax
  800420117f:	48 ba 50 64 20 04 80 	movabs $0x8004206450,%rdx
  8004201186:	00 00 00 
  8004201189:	ff d2                	callq  *%rdx
        debuginfo_rip(rip, &info);
        int offset=rip-info.rip_fn_addr;
        cprintf(" %s:%d: %s+%016x ",info.rip_file, info.rip_line, info.rip_fn_name,offset);
        cprintf("args:%x ",info.rip_fn_narg);
        int i;
        for(i = 1; i <= info.rip_fn_narg; i++) {
  800420118b:	83 45 ec 01          	addl   $0x1,-0x14(%rbp)
  800420118f:	8b 85 28 fb ff ff    	mov    -0x4d8(%rbp),%eax
  8004201195:	3b 45 ec             	cmp    -0x14(%rbp),%eax
  8004201198:	7d bc                	jge    8004201156 <mon_backtrace+0x110>
            cprintf("%016x ", *((int *)(rbp) -i));
        }
        cprintf("\n");
  800420119a:	48 bf ee e5 20 04 80 	movabs $0x800420e5ee,%rdi
  80042011a1:	00 00 00 
  80042011a4:	b8 00 00 00 00       	mov    $0x0,%eax
  80042011a9:	48 ba 50 64 20 04 80 	movabs $0x8004206450,%rdx
  80042011b0:	00 00 00 
  80042011b3:	ff d2                	callq  *%rdx
        rip = (uint64_t) *(rbp+1);
  80042011b5:	48 8b 45 f8          	mov    -0x8(%rbp),%rax
  80042011b9:	48 8b 40 08          	mov    0x8(%rax),%rax
  80042011bd:	48 89 45 f0          	mov    %rax,-0x10(%rbp)
        rbp = (uint64_t *)(*rbp);
  80042011c1:	48 8b 45 f8          	mov    -0x8(%rbp),%rax
  80042011c5:	48 8b 00             	mov    (%rax),%rax
  80042011c8:	48 89 45 f8          	mov    %rax,-0x8(%rbp)
    } while (rbp!=0);
  80042011cc:	48 83 7d f8 00       	cmpq   $0x0,-0x8(%rbp)
  80042011d1:	0f 85 c3 fe ff ff    	jne    800420109a <mon_backtrace+0x54>

    return 0;
  80042011d7:	b8 00 00 00 00       	mov    $0x0,%eax
}
  80042011dc:	c9                   	leaveq 
  80042011dd:	c3                   	retq   

00000080042011de <runcmd>:
#define WHITESPACE "\t\r\n "
#define MAXARGS 16

static int
runcmd(char *buf, struct Trapframe *tf)
{
  80042011de:	55                   	push   %rbp
  80042011df:	48 89 e5             	mov    %rsp,%rbp
  80042011e2:	48 81 ec a0 00 00 00 	sub    $0xa0,%rsp
  80042011e9:	48 89 bd 68 ff ff ff 	mov    %rdi,-0x98(%rbp)
  80042011f0:	48 89 b5 60 ff ff ff 	mov    %rsi,-0xa0(%rbp)
    int argc;
    char *argv[MAXARGS];
    int i;

    // Parse the command buffer into whitespace-separated arguments
    argc = 0;
  80042011f7:	c7 45 fc 00 00 00 00 	movl   $0x0,-0x4(%rbp)
    argv[argc] = 0;
  80042011fe:	8b 45 fc             	mov    -0x4(%rbp),%eax
  8004201201:	48 98                	cltq   
  8004201203:	48 c7 84 c5 70 ff ff 	movq   $0x0,-0x90(%rbp,%rax,8)
  800420120a:	ff 00 00 00 00 
    while (1) {
        // gobble whitespace
        while (*buf && strchr(WHITESPACE, *buf))
  800420120f:	eb 15                	jmp    8004201226 <runcmd+0x48>
            *buf++ = 0;
  8004201211:	48 8b 85 68 ff ff ff 	mov    -0x98(%rbp),%rax
  8004201218:	48 8d 50 01          	lea    0x1(%rax),%rdx
  800420121c:	48 89 95 68 ff ff ff 	mov    %rdx,-0x98(%rbp)
  8004201223:	c6 00 00             	movb   $0x0,(%rax)
    // Parse the command buffer into whitespace-separated arguments
    argc = 0;
    argv[argc] = 0;
    while (1) {
        // gobble whitespace
        while (*buf && strchr(WHITESPACE, *buf))
  8004201226:	48 8b 85 68 ff ff ff 	mov    -0x98(%rbp),%rax
  800420122d:	0f b6 00             	movzbl (%rax),%eax
  8004201230:	84 c0                	test   %al,%al
  8004201232:	74 2a                	je     800420125e <runcmd+0x80>
  8004201234:	48 8b 85 68 ff ff ff 	mov    -0x98(%rbp),%rax
  800420123b:	0f b6 00             	movzbl (%rax),%eax
  800420123e:	0f be c0             	movsbl %al,%eax
  8004201241:	89 c6                	mov    %eax,%esi
  8004201243:	48 bf f0 e5 20 04 80 	movabs $0x800420e5f0,%rdi
  800420124a:	00 00 00 
  800420124d:	48 b8 2d 7f 20 04 80 	movabs $0x8004207f2d,%rax
  8004201254:	00 00 00 
  8004201257:	ff d0                	callq  *%rax
  8004201259:	48 85 c0             	test   %rax,%rax
  800420125c:	75 b3                	jne    8004201211 <runcmd+0x33>
            *buf++ = 0;
        if (*buf == 0)
  800420125e:	48 8b 85 68 ff ff ff 	mov    -0x98(%rbp),%rax
  8004201265:	0f b6 00             	movzbl (%rax),%eax
  8004201268:	84 c0                	test   %al,%al
  800420126a:	75 21                	jne    800420128d <runcmd+0xaf>
            break;
  800420126c:	90                   	nop
        }
        argv[argc++] = buf;
        while (*buf && !strchr(WHITESPACE, *buf))
            buf++;
    }
    argv[argc] = 0;
  800420126d:	8b 45 fc             	mov    -0x4(%rbp),%eax
  8004201270:	48 98                	cltq   
  8004201272:	48 c7 84 c5 70 ff ff 	movq   $0x0,-0x90(%rbp,%rax,8)
  8004201279:	ff 00 00 00 00 

    // Lookup and invoke the command
    if (argc == 0)
  800420127e:	83 7d fc 00          	cmpl   $0x0,-0x4(%rbp)
  8004201282:	0f 85 a1 00 00 00    	jne    8004201329 <runcmd+0x14b>
  8004201288:	e9 92 00 00 00       	jmpq   800420131f <runcmd+0x141>
            *buf++ = 0;
        if (*buf == 0)
            break;

        // save and scan past next arg
        if (argc == MAXARGS-1) {
  800420128d:	83 7d fc 0f          	cmpl   $0xf,-0x4(%rbp)
  8004201291:	75 2a                	jne    80042012bd <runcmd+0xdf>
            cprintf("Too many arguments (max %d)\n", MAXARGS);
  8004201293:	be 10 00 00 00       	mov    $0x10,%esi
  8004201298:	48 bf f5 e5 20 04 80 	movabs $0x800420e5f5,%rdi
  800420129f:	00 00 00 
  80042012a2:	b8 00 00 00 00       	mov    $0x0,%eax
  80042012a7:	48 ba 50 64 20 04 80 	movabs $0x8004206450,%rdx
  80042012ae:	00 00 00 
  80042012b1:	ff d2                	callq  *%rdx
            return 0;
  80042012b3:	b8 00 00 00 00       	mov    $0x0,%eax
  80042012b8:	e9 30 01 00 00       	jmpq   80042013ed <runcmd+0x20f>
        }
        argv[argc++] = buf;
  80042012bd:	8b 45 fc             	mov    -0x4(%rbp),%eax
  80042012c0:	8d 50 01             	lea    0x1(%rax),%edx
  80042012c3:	89 55 fc             	mov    %edx,-0x4(%rbp)
  80042012c6:	48 98                	cltq   
  80042012c8:	48 8b 95 68 ff ff ff 	mov    -0x98(%rbp),%rdx
  80042012cf:	48 89 94 c5 70 ff ff 	mov    %rdx,-0x90(%rbp,%rax,8)
  80042012d6:	ff 
        while (*buf && !strchr(WHITESPACE, *buf))
  80042012d7:	eb 08                	jmp    80042012e1 <runcmd+0x103>
            buf++;
  80042012d9:	48 83 85 68 ff ff ff 	addq   $0x1,-0x98(%rbp)
  80042012e0:	01 
        if (argc == MAXARGS-1) {
            cprintf("Too many arguments (max %d)\n", MAXARGS);
            return 0;
        }
        argv[argc++] = buf;
        while (*buf && !strchr(WHITESPACE, *buf))
  80042012e1:	48 8b 85 68 ff ff ff 	mov    -0x98(%rbp),%rax
  80042012e8:	0f b6 00             	movzbl (%rax),%eax
  80042012eb:	84 c0                	test   %al,%al
  80042012ed:	74 2a                	je     8004201319 <runcmd+0x13b>
  80042012ef:	48 8b 85 68 ff ff ff 	mov    -0x98(%rbp),%rax
  80042012f6:	0f b6 00             	movzbl (%rax),%eax
  80042012f9:	0f be c0             	movsbl %al,%eax
  80042012fc:	89 c6                	mov    %eax,%esi
  80042012fe:	48 bf f0 e5 20 04 80 	movabs $0x800420e5f0,%rdi
  8004201305:	00 00 00 
  8004201308:	48 b8 2d 7f 20 04 80 	movabs $0x8004207f2d,%rax
  800420130f:	00 00 00 
  8004201312:	ff d0                	callq  *%rax
  8004201314:	48 85 c0             	test   %rax,%rax
  8004201317:	74 c0                	je     80042012d9 <runcmd+0xfb>
            buf++;
    }
  8004201319:	90                   	nop
    // Parse the command buffer into whitespace-separated arguments
    argc = 0;
    argv[argc] = 0;
    while (1) {
        // gobble whitespace
        while (*buf && strchr(WHITESPACE, *buf))
  800420131a:	e9 07 ff ff ff       	jmpq   8004201226 <runcmd+0x48>
    }
    argv[argc] = 0;

    // Lookup and invoke the command
    if (argc == 0)
        return 0;
  800420131f:	b8 00 00 00 00       	mov    $0x0,%eax
  8004201324:	e9 c4 00 00 00       	jmpq   80042013ed <runcmd+0x20f>
    for (i = 0; i < NCOMMANDS; i++) {
  8004201329:	c7 45 f8 00 00 00 00 	movl   $0x0,-0x8(%rbp)
  8004201330:	e9 82 00 00 00       	jmpq   80042013b7 <runcmd+0x1d9>
        if (strcmp(argv[0], commands[i].name) == 0)
  8004201335:	48 b9 80 25 22 04 80 	movabs $0x8004222580,%rcx
  800420133c:	00 00 00 
  800420133f:	8b 45 f8             	mov    -0x8(%rbp),%eax
  8004201342:	48 63 d0             	movslq %eax,%rdx
  8004201345:	48 89 d0             	mov    %rdx,%rax
  8004201348:	48 01 c0             	add    %rax,%rax
  800420134b:	48 01 d0             	add    %rdx,%rax
  800420134e:	48 c1 e0 03          	shl    $0x3,%rax
  8004201352:	48 01 c8             	add    %rcx,%rax
  8004201355:	48 8b 10             	mov    (%rax),%rdx
  8004201358:	48 8b 85 70 ff ff ff 	mov    -0x90(%rbp),%rax
  800420135f:	48 89 d6             	mov    %rdx,%rsi
  8004201362:	48 89 c7             	mov    %rax,%rdi
  8004201365:	48 b8 69 7e 20 04 80 	movabs $0x8004207e69,%rax
  800420136c:	00 00 00 
  800420136f:	ff d0                	callq  *%rax
  8004201371:	85 c0                	test   %eax,%eax
  8004201373:	75 3e                	jne    80042013b3 <runcmd+0x1d5>
            return commands[i].func(argc, argv, tf);
  8004201375:	48 b9 80 25 22 04 80 	movabs $0x8004222580,%rcx
  800420137c:	00 00 00 
  800420137f:	8b 45 f8             	mov    -0x8(%rbp),%eax
  8004201382:	48 63 d0             	movslq %eax,%rdx
  8004201385:	48 89 d0             	mov    %rdx,%rax
  8004201388:	48 01 c0             	add    %rax,%rax
  800420138b:	48 01 d0             	add    %rdx,%rax
  800420138e:	48 c1 e0 03          	shl    $0x3,%rax
  8004201392:	48 01 c8             	add    %rcx,%rax
  8004201395:	48 83 c0 10          	add    $0x10,%rax
  8004201399:	48 8b 00             	mov    (%rax),%rax
  800420139c:	48 8b 95 60 ff ff ff 	mov    -0xa0(%rbp),%rdx
  80042013a3:	48 8d b5 70 ff ff ff 	lea    -0x90(%rbp),%rsi
  80042013aa:	8b 4d fc             	mov    -0x4(%rbp),%ecx
  80042013ad:	89 cf                	mov    %ecx,%edi
  80042013af:	ff d0                	callq  *%rax
  80042013b1:	eb 3a                	jmp    80042013ed <runcmd+0x20f>
    argv[argc] = 0;

    // Lookup and invoke the command
    if (argc == 0)
        return 0;
    for (i = 0; i < NCOMMANDS; i++) {
  80042013b3:	83 45 f8 01          	addl   $0x1,-0x8(%rbp)
  80042013b7:	8b 45 f8             	mov    -0x8(%rbp),%eax
  80042013ba:	83 f8 02             	cmp    $0x2,%eax
  80042013bd:	0f 86 72 ff ff ff    	jbe    8004201335 <runcmd+0x157>
        if (strcmp(argv[0], commands[i].name) == 0)
            return commands[i].func(argc, argv, tf);
    }
    cprintf("Unknown command '%s'\n", argv[0]);
  80042013c3:	48 8b 85 70 ff ff ff 	mov    -0x90(%rbp),%rax
  80042013ca:	48 89 c6             	mov    %rax,%rsi
  80042013cd:	48 bf 12 e6 20 04 80 	movabs $0x800420e612,%rdi
  80042013d4:	00 00 00 
  80042013d7:	b8 00 00 00 00       	mov    $0x0,%eax
  80042013dc:	48 ba 50 64 20 04 80 	movabs $0x8004206450,%rdx
  80042013e3:	00 00 00 
  80042013e6:	ff d2                	callq  *%rdx
    return 0;
  80042013e8:	b8 00 00 00 00       	mov    $0x0,%eax
}
  80042013ed:	c9                   	leaveq 
  80042013ee:	c3                   	retq   

00000080042013ef <monitor>:

void
monitor(struct Trapframe *tf)
{
  80042013ef:	55                   	push   %rbp
  80042013f0:	48 89 e5             	mov    %rsp,%rbp
  80042013f3:	48 83 ec 20          	sub    $0x20,%rsp
  80042013f7:	48 89 7d e8          	mov    %rdi,-0x18(%rbp)
    char *buf;

    cprintf("Welcome to the JOS kernel monitor!\n");
  80042013fb:	48 bf 28 e6 20 04 80 	movabs $0x800420e628,%rdi
  8004201402:	00 00 00 
  8004201405:	b8 00 00 00 00       	mov    $0x0,%eax
  800420140a:	48 ba 50 64 20 04 80 	movabs $0x8004206450,%rdx
  8004201411:	00 00 00 
  8004201414:	ff d2                	callq  *%rdx
    cprintf("Type 'help' for a list of commands.\n");
  8004201416:	48 bf 50 e6 20 04 80 	movabs $0x800420e650,%rdi
  800420141d:	00 00 00 
  8004201420:	b8 00 00 00 00       	mov    $0x0,%eax
  8004201425:	48 ba 50 64 20 04 80 	movabs $0x8004206450,%rdx
  800420142c:	00 00 00 
  800420142f:	ff d2                	callq  *%rdx


    while (1) {
        buf = readline("K> ");
  8004201431:	48 bf 75 e6 20 04 80 	movabs $0x800420e675,%rdi
  8004201438:	00 00 00 
  800420143b:	48 b8 4c 7b 20 04 80 	movabs $0x8004207b4c,%rax
  8004201442:	00 00 00 
  8004201445:	ff d0                	callq  *%rax
  8004201447:	48 89 45 f8          	mov    %rax,-0x8(%rbp)
        if (buf != NULL)
  800420144b:	48 83 7d f8 00       	cmpq   $0x0,-0x8(%rbp)
  8004201450:	74 20                	je     8004201472 <monitor+0x83>
            if (runcmd(buf, tf) < 0)
  8004201452:	48 8b 55 e8          	mov    -0x18(%rbp),%rdx
  8004201456:	48 8b 45 f8          	mov    -0x8(%rbp),%rax
  800420145a:	48 89 d6             	mov    %rdx,%rsi
  800420145d:	48 89 c7             	mov    %rax,%rdi
  8004201460:	48 b8 de 11 20 04 80 	movabs $0x80042011de,%rax
  8004201467:	00 00 00 
  800420146a:	ff d0                	callq  *%rax
  800420146c:	85 c0                	test   %eax,%eax
  800420146e:	79 02                	jns    8004201472 <monitor+0x83>
                break;
  8004201470:	eb 02                	jmp    8004201474 <monitor+0x85>
    }
  8004201472:	eb bd                	jmp    8004201431 <monitor+0x42>
}
  8004201474:	c9                   	leaveq 
  8004201475:	c3                   	retq   

0000008004201476 <page2ppn>:

void	tlb_invalidate(pml4e_t *pml4e, void *va);

static inline ppn_t
page2ppn(struct PageInfo *pp)
{
  8004201476:	55                   	push   %rbp
  8004201477:	48 89 e5             	mov    %rsp,%rbp
  800420147a:	48 83 ec 08          	sub    $0x8,%rsp
  800420147e:	48 89 7d f8          	mov    %rdi,-0x8(%rbp)
	return pp - pages;
  8004201482:	48 8b 55 f8          	mov    -0x8(%rbp),%rdx
  8004201486:	48 b8 90 2d 22 04 80 	movabs $0x8004222d90,%rax
  800420148d:	00 00 00 
  8004201490:	48 8b 00             	mov    (%rax),%rax
  8004201493:	48 29 c2             	sub    %rax,%rdx
  8004201496:	48 89 d0             	mov    %rdx,%rax
  8004201499:	48 c1 f8 04          	sar    $0x4,%rax
}
  800420149d:	c9                   	leaveq 
  800420149e:	c3                   	retq   

000000800420149f <page2pa>:

static inline physaddr_t
page2pa(struct PageInfo *pp)
{
  800420149f:	55                   	push   %rbp
  80042014a0:	48 89 e5             	mov    %rsp,%rbp
  80042014a3:	48 83 ec 08          	sub    $0x8,%rsp
  80042014a7:	48 89 7d f8          	mov    %rdi,-0x8(%rbp)
	return page2ppn(pp) << PGSHIFT;
  80042014ab:	48 8b 45 f8          	mov    -0x8(%rbp),%rax
  80042014af:	48 89 c7             	mov    %rax,%rdi
  80042014b2:	48 b8 76 14 20 04 80 	movabs $0x8004201476,%rax
  80042014b9:	00 00 00 
  80042014bc:	ff d0                	callq  *%rax
  80042014be:	48 c1 e0 0c          	shl    $0xc,%rax
}
  80042014c2:	c9                   	leaveq 
  80042014c3:	c3                   	retq   

00000080042014c4 <pa2page>:

static inline struct PageInfo*
pa2page(physaddr_t pa)
{
  80042014c4:	55                   	push   %rbp
  80042014c5:	48 89 e5             	mov    %rsp,%rbp
  80042014c8:	48 83 ec 10          	sub    $0x10,%rsp
  80042014cc:	48 89 7d f8          	mov    %rdi,-0x8(%rbp)
	if (PPN(pa) >= npages)
  80042014d0:	48 8b 45 f8          	mov    -0x8(%rbp),%rax
  80042014d4:	48 c1 e8 0c          	shr    $0xc,%rax
  80042014d8:	48 89 c2             	mov    %rax,%rdx
  80042014db:	48 b8 88 2d 22 04 80 	movabs $0x8004222d88,%rax
  80042014e2:	00 00 00 
  80042014e5:	48 8b 00             	mov    (%rax),%rax
  80042014e8:	48 39 c2             	cmp    %rax,%rdx
  80042014eb:	72 2a                	jb     8004201517 <pa2page+0x53>
		panic("pa2page called with invalid pa");
  80042014ed:	48 ba 80 e6 20 04 80 	movabs $0x800420e680,%rdx
  80042014f4:	00 00 00 
  80042014f7:	be 4e 00 00 00       	mov    $0x4e,%esi
  80042014fc:	48 bf 9f e6 20 04 80 	movabs $0x800420e69f,%rdi
  8004201503:	00 00 00 
  8004201506:	b8 00 00 00 00       	mov    $0x0,%eax
  800420150b:	48 b9 14 01 20 04 80 	movabs $0x8004200114,%rcx
  8004201512:	00 00 00 
  8004201515:	ff d1                	callq  *%rcx
	return &pages[PPN(pa)];
  8004201517:	48 b8 90 2d 22 04 80 	movabs $0x8004222d90,%rax
  800420151e:	00 00 00 
  8004201521:	48 8b 00             	mov    (%rax),%rax
  8004201524:	48 8b 55 f8          	mov    -0x8(%rbp),%rdx
  8004201528:	48 c1 ea 0c          	shr    $0xc,%rdx
  800420152c:	48 c1 e2 04          	shl    $0x4,%rdx
  8004201530:	48 01 d0             	add    %rdx,%rax
}
  8004201533:	c9                   	leaveq 
  8004201534:	c3                   	retq   

0000008004201535 <page2kva>:

static inline void*
page2kva(struct PageInfo *pp)
{
  8004201535:	55                   	push   %rbp
  8004201536:	48 89 e5             	mov    %rsp,%rbp
  8004201539:	48 83 ec 20          	sub    $0x20,%rsp
  800420153d:	48 89 7d e8          	mov    %rdi,-0x18(%rbp)
	return KADDR(page2pa(pp));
  8004201541:	48 8b 45 e8          	mov    -0x18(%rbp),%rax
  8004201545:	48 89 c7             	mov    %rax,%rdi
  8004201548:	48 b8 9f 14 20 04 80 	movabs $0x800420149f,%rax
  800420154f:	00 00 00 
  8004201552:	ff d0                	callq  *%rax
  8004201554:	48 89 45 f8          	mov    %rax,-0x8(%rbp)
  8004201558:	48 8b 45 f8          	mov    -0x8(%rbp),%rax
  800420155c:	48 c1 e8 0c          	shr    $0xc,%rax
  8004201560:	89 45 f4             	mov    %eax,-0xc(%rbp)
  8004201563:	8b 55 f4             	mov    -0xc(%rbp),%edx
  8004201566:	48 b8 88 2d 22 04 80 	movabs $0x8004222d88,%rax
  800420156d:	00 00 00 
  8004201570:	48 8b 00             	mov    (%rax),%rax
  8004201573:	48 39 c2             	cmp    %rax,%rdx
  8004201576:	72 32                	jb     80042015aa <page2kva+0x75>
  8004201578:	48 8b 45 f8          	mov    -0x8(%rbp),%rax
  800420157c:	48 89 c1             	mov    %rax,%rcx
  800420157f:	48 ba b0 e6 20 04 80 	movabs $0x800420e6b0,%rdx
  8004201586:	00 00 00 
  8004201589:	be 55 00 00 00       	mov    $0x55,%esi
  800420158e:	48 bf 9f e6 20 04 80 	movabs $0x800420e69f,%rdi
  8004201595:	00 00 00 
  8004201598:	b8 00 00 00 00       	mov    $0x0,%eax
  800420159d:	49 b8 14 01 20 04 80 	movabs $0x8004200114,%r8
  80042015a4:	00 00 00 
  80042015a7:	41 ff d0             	callq  *%r8
  80042015aa:	48 ba 00 00 00 04 80 	movabs $0x8004000000,%rdx
  80042015b1:	00 00 00 
  80042015b4:	48 8b 45 f8          	mov    -0x8(%rbp),%rax
  80042015b8:	48 01 d0             	add    %rdx,%rax
}
  80042015bb:	c9                   	leaveq 
  80042015bc:	c3                   	retq   

00000080042015bd <restrictive_type>:
   uint32_t length_low;
   uint32_t length_high;
   uint32_t type;
 } memory_map_t;

static __inline uint32_t restrictive_type(uint32_t t1, uint32_t t2) {
  80042015bd:	55                   	push   %rbp
  80042015be:	48 89 e5             	mov    %rsp,%rbp
  80042015c1:	48 83 ec 08          	sub    $0x8,%rsp
  80042015c5:	89 7d fc             	mov    %edi,-0x4(%rbp)
  80042015c8:	89 75 f8             	mov    %esi,-0x8(%rbp)
  if(t1==MB_TYPE_BAD || t2==MB_TYPE_BAD)
  80042015cb:	83 7d fc 05          	cmpl   $0x5,-0x4(%rbp)
  80042015cf:	74 06                	je     80042015d7 <restrictive_type+0x1a>
  80042015d1:	83 7d f8 05          	cmpl   $0x5,-0x8(%rbp)
  80042015d5:	75 07                	jne    80042015de <restrictive_type+0x21>
    return MB_TYPE_BAD;
  80042015d7:	b8 05 00 00 00       	mov    $0x5,%eax
  80042015dc:	eb 3e                	jmp    800420161c <restrictive_type+0x5f>
  else if(t1==MB_TYPE_ACPI_NVS || t2==MB_TYPE_ACPI_NVS)
  80042015de:	83 7d fc 04          	cmpl   $0x4,-0x4(%rbp)
  80042015e2:	74 06                	je     80042015ea <restrictive_type+0x2d>
  80042015e4:	83 7d f8 04          	cmpl   $0x4,-0x8(%rbp)
  80042015e8:	75 07                	jne    80042015f1 <restrictive_type+0x34>
    return MB_TYPE_ACPI_NVS;
  80042015ea:	b8 04 00 00 00       	mov    $0x4,%eax
  80042015ef:	eb 2b                	jmp    800420161c <restrictive_type+0x5f>
  else if(t1==MB_TYPE_RESERVED || t2==MB_TYPE_RESERVED)
  80042015f1:	83 7d fc 02          	cmpl   $0x2,-0x4(%rbp)
  80042015f5:	74 06                	je     80042015fd <restrictive_type+0x40>
  80042015f7:	83 7d f8 02          	cmpl   $0x2,-0x8(%rbp)
  80042015fb:	75 07                	jne    8004201604 <restrictive_type+0x47>
    return MB_TYPE_RESERVED;
  80042015fd:	b8 02 00 00 00       	mov    $0x2,%eax
  8004201602:	eb 18                	jmp    800420161c <restrictive_type+0x5f>
  else if(t1==MB_TYPE_ACPI_RECLM || t2==MB_TYPE_ACPI_RECLM)
  8004201604:	83 7d fc 03          	cmpl   $0x3,-0x4(%rbp)
  8004201608:	74 06                	je     8004201610 <restrictive_type+0x53>
  800420160a:	83 7d f8 03          	cmpl   $0x3,-0x8(%rbp)
  800420160e:	75 07                	jne    8004201617 <restrictive_type+0x5a>
    return MB_TYPE_ACPI_RECLM;
  8004201610:	b8 03 00 00 00       	mov    $0x3,%eax
  8004201615:	eb 05                	jmp    800420161c <restrictive_type+0x5f>

  return MB_TYPE_USABLE;
  8004201617:	b8 01 00 00 00       	mov    $0x1,%eax
}
  800420161c:	c9                   	leaveq 
  800420161d:	c3                   	retq   

000000800420161e <nvram_read>:
// Detect machine's physical memory setup.
// --------------------------------------------------------------

static int
nvram_read(int r)
{
  800420161e:	55                   	push   %rbp
  800420161f:	48 89 e5             	mov    %rsp,%rbp
  8004201622:	53                   	push   %rbx
  8004201623:	48 83 ec 18          	sub    $0x18,%rsp
  8004201627:	89 7d ec             	mov    %edi,-0x14(%rbp)
    return mc146818_read(r) | (mc146818_read(r + 1) << 8);
  800420162a:	8b 45 ec             	mov    -0x14(%rbp),%eax
  800420162d:	89 c7                	mov    %eax,%edi
  800420162f:	48 b8 47 63 20 04 80 	movabs $0x8004206347,%rax
  8004201636:	00 00 00 
  8004201639:	ff d0                	callq  *%rax
  800420163b:	89 c3                	mov    %eax,%ebx
  800420163d:	8b 45 ec             	mov    -0x14(%rbp),%eax
  8004201640:	83 c0 01             	add    $0x1,%eax
  8004201643:	89 c7                	mov    %eax,%edi
  8004201645:	48 b8 47 63 20 04 80 	movabs $0x8004206347,%rax
  800420164c:	00 00 00 
  800420164f:	ff d0                	callq  *%rax
  8004201651:	c1 e0 08             	shl    $0x8,%eax
  8004201654:	09 d8                	or     %ebx,%eax
}
  8004201656:	48 83 c4 18          	add    $0x18,%rsp
  800420165a:	5b                   	pop    %rbx
  800420165b:	5d                   	pop    %rbp
  800420165c:	c3                   	retq   

000000800420165d <multiboot_read>:

static void
multiboot_read(multiboot_info_t* mbinfo, size_t* basemem, size_t* extmem) {
  800420165d:	55                   	push   %rbp
  800420165e:	48 89 e5             	mov    %rsp,%rbp
  8004201661:	41 54                	push   %r12
  8004201663:	53                   	push   %rbx
  8004201664:	48 81 ec b0 00 00 00 	sub    $0xb0,%rsp
  800420166b:	48 89 bd 58 ff ff ff 	mov    %rdi,-0xa8(%rbp)
  8004201672:	48 89 b5 50 ff ff ff 	mov    %rsi,-0xb0(%rbp)
  8004201679:	48 89 95 48 ff ff ff 	mov    %rdx,-0xb8(%rbp)
  8004201680:	48 89 e0             	mov    %rsp,%rax
  8004201683:	49 89 c4             	mov    %rax,%r12
    int i;

    memory_map_t* mmap_base = (memory_map_t*)(uintptr_t)mbinfo->mmap_addr;
  8004201686:	48 8b 85 58 ff ff ff 	mov    -0xa8(%rbp),%rax
  800420168d:	8b 40 30             	mov    0x30(%rax),%eax
  8004201690:	89 c0                	mov    %eax,%eax
  8004201692:	48 89 45 d8          	mov    %rax,-0x28(%rbp)
    memory_map_t* mmap_list[mbinfo->mmap_length/ (sizeof(memory_map_t))];
  8004201696:	48 8b 85 58 ff ff ff 	mov    -0xa8(%rbp),%rax
  800420169d:	8b 40 2c             	mov    0x2c(%rax),%eax
  80042016a0:	ba ab aa aa aa       	mov    $0xaaaaaaab,%edx
  80042016a5:	f7 e2                	mul    %edx
  80042016a7:	89 d0                	mov    %edx,%eax
  80042016a9:	c1 e8 04             	shr    $0x4,%eax
  80042016ac:	89 c0                	mov    %eax,%eax
  80042016ae:	48 89 c2             	mov    %rax,%rdx
  80042016b1:	48 83 ea 01          	sub    $0x1,%rdx
  80042016b5:	48 89 55 d0          	mov    %rdx,-0x30(%rbp)
  80042016b9:	49 89 c0             	mov    %rax,%r8
  80042016bc:	41 b9 00 00 00 00    	mov    $0x0,%r9d
  80042016c2:	48 89 c1             	mov    %rax,%rcx
  80042016c5:	bb 00 00 00 00       	mov    $0x0,%ebx
  80042016ca:	48 c1 e0 03          	shl    $0x3,%rax
  80042016ce:	48 8d 50 07          	lea    0x7(%rax),%rdx
  80042016d2:	b8 10 00 00 00       	mov    $0x10,%eax
  80042016d7:	48 83 e8 01          	sub    $0x1,%rax
  80042016db:	48 01 d0             	add    %rdx,%rax
  80042016de:	bb 10 00 00 00       	mov    $0x10,%ebx
  80042016e3:	ba 00 00 00 00       	mov    $0x0,%edx
  80042016e8:	48 f7 f3             	div    %rbx
  80042016eb:	48 6b c0 10          	imul   $0x10,%rax,%rax
  80042016ef:	48 29 c4             	sub    %rax,%rsp
  80042016f2:	48 89 e0             	mov    %rsp,%rax
  80042016f5:	48 83 c0 07          	add    $0x7,%rax
  80042016f9:	48 c1 e8 03          	shr    $0x3,%rax
  80042016fd:	48 c1 e0 03          	shl    $0x3,%rax
  8004201701:	48 89 45 c8          	mov    %rax,-0x38(%rbp)

    cprintf("\ne820 MEMORY MAP\n");
  8004201705:	48 bf d3 e6 20 04 80 	movabs $0x800420e6d3,%rdi
  800420170c:	00 00 00 
  800420170f:	b8 00 00 00 00       	mov    $0x0,%eax
  8004201714:	48 ba 50 64 20 04 80 	movabs $0x8004206450,%rdx
  800420171b:	00 00 00 
  800420171e:	ff d2                	callq  *%rdx
    for(i = 0; i < (mbinfo->mmap_length / (sizeof(memory_map_t))); i++) {
  8004201720:	c7 45 ec 00 00 00 00 	movl   $0x0,-0x14(%rbp)
  8004201727:	e9 6c 01 00 00       	jmpq   8004201898 <multiboot_read+0x23b>
        memory_map_t* mmap = &mmap_base[i];
  800420172c:	8b 45 ec             	mov    -0x14(%rbp),%eax
  800420172f:	48 63 d0             	movslq %eax,%rdx
  8004201732:	48 89 d0             	mov    %rdx,%rax
  8004201735:	48 01 c0             	add    %rax,%rax
  8004201738:	48 01 d0             	add    %rdx,%rax
  800420173b:	48 c1 e0 03          	shl    $0x3,%rax
  800420173f:	48 89 c2             	mov    %rax,%rdx
  8004201742:	48 8b 45 d8          	mov    -0x28(%rbp),%rax
  8004201746:	48 01 d0             	add    %rdx,%rax
  8004201749:	48 89 45 c0          	mov    %rax,-0x40(%rbp)

        uint64_t addr = APPEND_HILO(mmap->base_addr_high, mmap->base_addr_low);
  800420174d:	48 8b 45 c0          	mov    -0x40(%rbp),%rax
  8004201751:	8b 40 08             	mov    0x8(%rax),%eax
  8004201754:	89 c0                	mov    %eax,%eax
  8004201756:	48 c1 e0 20          	shl    $0x20,%rax
  800420175a:	48 89 c2             	mov    %rax,%rdx
  800420175d:	48 8b 45 c0          	mov    -0x40(%rbp),%rax
  8004201761:	8b 40 04             	mov    0x4(%rax),%eax
  8004201764:	89 c0                	mov    %eax,%eax
  8004201766:	48 01 d0             	add    %rdx,%rax
  8004201769:	48 89 45 b8          	mov    %rax,-0x48(%rbp)
        uint64_t len = APPEND_HILO(mmap->length_high, mmap->length_low);
  800420176d:	48 8b 45 c0          	mov    -0x40(%rbp),%rax
  8004201771:	8b 40 10             	mov    0x10(%rax),%eax
  8004201774:	89 c0                	mov    %eax,%eax
  8004201776:	48 c1 e0 20          	shl    $0x20,%rax
  800420177a:	48 89 c2             	mov    %rax,%rdx
  800420177d:	48 8b 45 c0          	mov    -0x40(%rbp),%rax
  8004201781:	8b 40 0c             	mov    0xc(%rax),%eax
  8004201784:	89 c0                	mov    %eax,%eax
  8004201786:	48 01 d0             	add    %rdx,%rax
  8004201789:	48 89 45 b0          	mov    %rax,-0x50(%rbp)

        cprintf("size: %d, address: 0x%016x, length: 0x%016x, type: %x\n", mmap->size,
  800420178d:	48 8b 45 c0          	mov    -0x40(%rbp),%rax
  8004201791:	8b 70 14             	mov    0x14(%rax),%esi
  8004201794:	48 8b 45 c0          	mov    -0x40(%rbp),%rax
  8004201798:	8b 00                	mov    (%rax),%eax
  800420179a:	48 8b 4d b0          	mov    -0x50(%rbp),%rcx
  800420179e:	48 8b 55 b8          	mov    -0x48(%rbp),%rdx
  80042017a2:	41 89 f0             	mov    %esi,%r8d
  80042017a5:	89 c6                	mov    %eax,%esi
  80042017a7:	48 bf e8 e6 20 04 80 	movabs $0x800420e6e8,%rdi
  80042017ae:	00 00 00 
  80042017b1:	b8 00 00 00 00       	mov    $0x0,%eax
  80042017b6:	49 b9 50 64 20 04 80 	movabs $0x8004206450,%r9
  80042017bd:	00 00 00 
  80042017c0:	41 ff d1             	callq  *%r9
                addr, len, mmap->type);

        if(mmap->type > 5 || mmap->type < 1)
  80042017c3:	48 8b 45 c0          	mov    -0x40(%rbp),%rax
  80042017c7:	8b 40 14             	mov    0x14(%rax),%eax
  80042017ca:	83 f8 05             	cmp    $0x5,%eax
  80042017cd:	77 0b                	ja     80042017da <multiboot_read+0x17d>
  80042017cf:	48 8b 45 c0          	mov    -0x40(%rbp),%rax
  80042017d3:	8b 40 14             	mov    0x14(%rax),%eax
  80042017d6:	85 c0                	test   %eax,%eax
  80042017d8:	75 0b                	jne    80042017e5 <multiboot_read+0x188>
            mmap->type = MB_TYPE_RESERVED;
  80042017da:	48 8b 45 c0          	mov    -0x40(%rbp),%rax
  80042017de:	c7 40 14 02 00 00 00 	movl   $0x2,0x14(%rax)

        //Insert into the sorted list
        int j = 0;
  80042017e5:	c7 45 e8 00 00 00 00 	movl   $0x0,-0x18(%rbp)
        for(;j<i;j++) {
  80042017ec:	e9 85 00 00 00       	jmpq   8004201876 <multiboot_read+0x219>
            memory_map_t* this = mmap_list[j];
  80042017f1:	48 8b 45 c8          	mov    -0x38(%rbp),%rax
  80042017f5:	8b 55 e8             	mov    -0x18(%rbp),%edx
  80042017f8:	48 63 d2             	movslq %edx,%rdx
  80042017fb:	48 8b 04 d0          	mov    (%rax,%rdx,8),%rax
  80042017ff:	48 89 45 a8          	mov    %rax,-0x58(%rbp)
            uint64_t this_addr = APPEND_HILO(this->base_addr_high, this->base_addr_low);
  8004201803:	48 8b 45 a8          	mov    -0x58(%rbp),%rax
  8004201807:	8b 40 08             	mov    0x8(%rax),%eax
  800420180a:	89 c0                	mov    %eax,%eax
  800420180c:	48 c1 e0 20          	shl    $0x20,%rax
  8004201810:	48 89 c2             	mov    %rax,%rdx
  8004201813:	48 8b 45 a8          	mov    -0x58(%rbp),%rax
  8004201817:	8b 40 04             	mov    0x4(%rax),%eax
  800420181a:	89 c0                	mov    %eax,%eax
  800420181c:	48 01 d0             	add    %rdx,%rax
  800420181f:	48 89 45 a0          	mov    %rax,-0x60(%rbp)
            if(this_addr > addr) {
  8004201823:	48 8b 45 a0          	mov    -0x60(%rbp),%rax
  8004201827:	48 3b 45 b8          	cmp    -0x48(%rbp),%rax
  800420182b:	76 45                	jbe    8004201872 <multiboot_read+0x215>
                int last = i+1;
  800420182d:	8b 45 ec             	mov    -0x14(%rbp),%eax
  8004201830:	83 c0 01             	add    $0x1,%eax
  8004201833:	89 45 e4             	mov    %eax,-0x1c(%rbp)
                while(last != j) {
  8004201836:	eb 30                	jmp    8004201868 <multiboot_read+0x20b>
                    *(mmap_list + last) = *(mmap_list + last - 1);
  8004201838:	48 8b 45 c8          	mov    -0x38(%rbp),%rax
  800420183c:	8b 55 e4             	mov    -0x1c(%rbp),%edx
  800420183f:	48 63 d2             	movslq %edx,%rdx
  8004201842:	48 c1 e2 03          	shl    $0x3,%rdx
  8004201846:	48 01 c2             	add    %rax,%rdx
  8004201849:	48 8b 45 c8          	mov    -0x38(%rbp),%rax
  800420184d:	8b 4d e4             	mov    -0x1c(%rbp),%ecx
  8004201850:	48 63 c9             	movslq %ecx,%rcx
  8004201853:	48 c1 e1 03          	shl    $0x3,%rcx
  8004201857:	48 83 e9 08          	sub    $0x8,%rcx
  800420185b:	48 01 c8             	add    %rcx,%rax
  800420185e:	48 8b 00             	mov    (%rax),%rax
  8004201861:	48 89 02             	mov    %rax,(%rdx)
                    last--;
  8004201864:	83 6d e4 01          	subl   $0x1,-0x1c(%rbp)
        for(;j<i;j++) {
            memory_map_t* this = mmap_list[j];
            uint64_t this_addr = APPEND_HILO(this->base_addr_high, this->base_addr_low);
            if(this_addr > addr) {
                int last = i+1;
                while(last != j) {
  8004201868:	8b 45 e4             	mov    -0x1c(%rbp),%eax
  800420186b:	3b 45 e8             	cmp    -0x18(%rbp),%eax
  800420186e:	75 c8                	jne    8004201838 <multiboot_read+0x1db>
                    *(mmap_list + last) = *(mmap_list + last - 1);
                    last--;
                }
                break;
  8004201870:	eb 10                	jmp    8004201882 <multiboot_read+0x225>
        if(mmap->type > 5 || mmap->type < 1)
            mmap->type = MB_TYPE_RESERVED;

        //Insert into the sorted list
        int j = 0;
        for(;j<i;j++) {
  8004201872:	83 45 e8 01          	addl   $0x1,-0x18(%rbp)
  8004201876:	8b 45 e8             	mov    -0x18(%rbp),%eax
  8004201879:	3b 45 ec             	cmp    -0x14(%rbp),%eax
  800420187c:	0f 8c 6f ff ff ff    	jl     80042017f1 <multiboot_read+0x194>
                    last--;
                }
                break;
            }
        }
        mmap_list[j] = mmap;
  8004201882:	48 8b 45 c8          	mov    -0x38(%rbp),%rax
  8004201886:	8b 55 e8             	mov    -0x18(%rbp),%edx
  8004201889:	48 63 d2             	movslq %edx,%rdx
  800420188c:	48 8b 4d c0          	mov    -0x40(%rbp),%rcx
  8004201890:	48 89 0c d0          	mov    %rcx,(%rax,%rdx,8)

    memory_map_t* mmap_base = (memory_map_t*)(uintptr_t)mbinfo->mmap_addr;
    memory_map_t* mmap_list[mbinfo->mmap_length/ (sizeof(memory_map_t))];

    cprintf("\ne820 MEMORY MAP\n");
    for(i = 0; i < (mbinfo->mmap_length / (sizeof(memory_map_t))); i++) {
  8004201894:	83 45 ec 01          	addl   $0x1,-0x14(%rbp)
  8004201898:	8b 45 ec             	mov    -0x14(%rbp),%eax
  800420189b:	48 63 c8             	movslq %eax,%rcx
  800420189e:	48 8b 85 58 ff ff ff 	mov    -0xa8(%rbp),%rax
  80042018a5:	8b 40 2c             	mov    0x2c(%rax),%eax
  80042018a8:	ba ab aa aa aa       	mov    $0xaaaaaaab,%edx
  80042018ad:	f7 e2                	mul    %edx
  80042018af:	89 d0                	mov    %edx,%eax
  80042018b1:	c1 e8 04             	shr    $0x4,%eax
  80042018b4:	89 c0                	mov    %eax,%eax
  80042018b6:	48 39 c1             	cmp    %rax,%rcx
  80042018b9:	0f 82 6d fe ff ff    	jb     800420172c <multiboot_read+0xcf>
                break;
            }
        }
        mmap_list[j] = mmap;
    }
    cprintf("\n");
  80042018bf:	48 bf 1f e7 20 04 80 	movabs $0x800420e71f,%rdi
  80042018c6:	00 00 00 
  80042018c9:	b8 00 00 00 00       	mov    $0x0,%eax
  80042018ce:	48 ba 50 64 20 04 80 	movabs $0x8004206450,%rdx
  80042018d5:	00 00 00 
  80042018d8:	ff d2                	callq  *%rdx

    // Sanitize the list
    for(i=1;i < (mbinfo->mmap_length / (sizeof(memory_map_t))); i++) {
  80042018da:	c7 45 ec 01 00 00 00 	movl   $0x1,-0x14(%rbp)
  80042018e1:	e9 93 01 00 00       	jmpq   8004201a79 <multiboot_read+0x41c>
        memory_map_t* prev = mmap_list[i-1];
  80042018e6:	8b 45 ec             	mov    -0x14(%rbp),%eax
  80042018e9:	8d 50 ff             	lea    -0x1(%rax),%edx
  80042018ec:	48 8b 45 c8          	mov    -0x38(%rbp),%rax
  80042018f0:	48 63 d2             	movslq %edx,%rdx
  80042018f3:	48 8b 04 d0          	mov    (%rax,%rdx,8),%rax
  80042018f7:	48 89 45 98          	mov    %rax,-0x68(%rbp)
        memory_map_t* this = mmap_list[i];
  80042018fb:	48 8b 45 c8          	mov    -0x38(%rbp),%rax
  80042018ff:	8b 55 ec             	mov    -0x14(%rbp),%edx
  8004201902:	48 63 d2             	movslq %edx,%rdx
  8004201905:	48 8b 04 d0          	mov    (%rax,%rdx,8),%rax
  8004201909:	48 89 45 90          	mov    %rax,-0x70(%rbp)

        uint64_t this_addr = APPEND_HILO(this->base_addr_high, this->base_addr_low);
  800420190d:	48 8b 45 90          	mov    -0x70(%rbp),%rax
  8004201911:	8b 40 08             	mov    0x8(%rax),%eax
  8004201914:	89 c0                	mov    %eax,%eax
  8004201916:	48 c1 e0 20          	shl    $0x20,%rax
  800420191a:	48 89 c2             	mov    %rax,%rdx
  800420191d:	48 8b 45 90          	mov    -0x70(%rbp),%rax
  8004201921:	8b 40 04             	mov    0x4(%rax),%eax
  8004201924:	89 c0                	mov    %eax,%eax
  8004201926:	48 01 d0             	add    %rdx,%rax
  8004201929:	48 89 45 88          	mov    %rax,-0x78(%rbp)
        uint64_t prev_addr = APPEND_HILO(prev->base_addr_high, prev->base_addr_low);
  800420192d:	48 8b 45 98          	mov    -0x68(%rbp),%rax
  8004201931:	8b 40 08             	mov    0x8(%rax),%eax
  8004201934:	89 c0                	mov    %eax,%eax
  8004201936:	48 c1 e0 20          	shl    $0x20,%rax
  800420193a:	48 89 c2             	mov    %rax,%rdx
  800420193d:	48 8b 45 98          	mov    -0x68(%rbp),%rax
  8004201941:	8b 40 04             	mov    0x4(%rax),%eax
  8004201944:	89 c0                	mov    %eax,%eax
  8004201946:	48 01 d0             	add    %rdx,%rax
  8004201949:	48 89 45 80          	mov    %rax,-0x80(%rbp)
        uint64_t prev_length = APPEND_HILO(prev->length_high, prev->length_low);
  800420194d:	48 8b 45 98          	mov    -0x68(%rbp),%rax
  8004201951:	8b 40 10             	mov    0x10(%rax),%eax
  8004201954:	89 c0                	mov    %eax,%eax
  8004201956:	48 c1 e0 20          	shl    $0x20,%rax
  800420195a:	48 89 c2             	mov    %rax,%rdx
  800420195d:	48 8b 45 98          	mov    -0x68(%rbp),%rax
  8004201961:	8b 40 0c             	mov    0xc(%rax),%eax
  8004201964:	89 c0                	mov    %eax,%eax
  8004201966:	48 01 d0             	add    %rdx,%rax
  8004201969:	48 89 85 78 ff ff ff 	mov    %rax,-0x88(%rbp)
        uint64_t this_length = APPEND_HILO(this->length_high, this->length_low);
  8004201970:	48 8b 45 90          	mov    -0x70(%rbp),%rax
  8004201974:	8b 40 10             	mov    0x10(%rax),%eax
  8004201977:	89 c0                	mov    %eax,%eax
  8004201979:	48 c1 e0 20          	shl    $0x20,%rax
  800420197d:	48 89 c2             	mov    %rax,%rdx
  8004201980:	48 8b 45 90          	mov    -0x70(%rbp),%rax
  8004201984:	8b 40 0c             	mov    0xc(%rax),%eax
  8004201987:	89 c0                	mov    %eax,%eax
  8004201989:	48 01 d0             	add    %rdx,%rax
  800420198c:	48 89 85 70 ff ff ff 	mov    %rax,-0x90(%rbp)

        // Merge adjacent regions with same type
        if(prev_addr + prev_length == this_addr && prev->type == this->type) {
  8004201993:	48 8b 85 78 ff ff ff 	mov    -0x88(%rbp),%rax
  800420199a:	48 8b 55 80          	mov    -0x80(%rbp),%rdx
  800420199e:	48 01 d0             	add    %rdx,%rax
  80042019a1:	48 3b 45 88          	cmp    -0x78(%rbp),%rax
  80042019a5:	75 7c                	jne    8004201a23 <multiboot_read+0x3c6>
  80042019a7:	48 8b 45 98          	mov    -0x68(%rbp),%rax
  80042019ab:	8b 50 14             	mov    0x14(%rax),%edx
  80042019ae:	48 8b 45 90          	mov    -0x70(%rbp),%rax
  80042019b2:	8b 40 14             	mov    0x14(%rax),%eax
  80042019b5:	39 c2                	cmp    %eax,%edx
  80042019b7:	75 6a                	jne    8004201a23 <multiboot_read+0x3c6>
            this->length_low = (uint32_t)prev_length + this_length;
  80042019b9:	48 8b 85 78 ff ff ff 	mov    -0x88(%rbp),%rax
  80042019c0:	89 c2                	mov    %eax,%edx
  80042019c2:	48 8b 85 70 ff ff ff 	mov    -0x90(%rbp),%rax
  80042019c9:	01 c2                	add    %eax,%edx
  80042019cb:	48 8b 45 90          	mov    -0x70(%rbp),%rax
  80042019cf:	89 50 0c             	mov    %edx,0xc(%rax)
            this->length_high = (uint32_t)((prev_length + this_length)>>32);
  80042019d2:	48 8b 85 70 ff ff ff 	mov    -0x90(%rbp),%rax
  80042019d9:	48 8b 95 78 ff ff ff 	mov    -0x88(%rbp),%rdx
  80042019e0:	48 01 d0             	add    %rdx,%rax
  80042019e3:	48 c1 e8 20          	shr    $0x20,%rax
  80042019e7:	89 c2                	mov    %eax,%edx
  80042019e9:	48 8b 45 90          	mov    -0x70(%rbp),%rax
  80042019ed:	89 50 10             	mov    %edx,0x10(%rax)
            this->base_addr_low = prev->base_addr_low;
  80042019f0:	48 8b 45 98          	mov    -0x68(%rbp),%rax
  80042019f4:	8b 50 04             	mov    0x4(%rax),%edx
  80042019f7:	48 8b 45 90          	mov    -0x70(%rbp),%rax
  80042019fb:	89 50 04             	mov    %edx,0x4(%rax)
            this->base_addr_high = prev->base_addr_high;
  80042019fe:	48 8b 45 98          	mov    -0x68(%rbp),%rax
  8004201a02:	8b 50 08             	mov    0x8(%rax),%edx
  8004201a05:	48 8b 45 90          	mov    -0x70(%rbp),%rax
  8004201a09:	89 50 08             	mov    %edx,0x8(%rax)
            mmap_list[i-1] = NULL;
  8004201a0c:	8b 45 ec             	mov    -0x14(%rbp),%eax
  8004201a0f:	8d 50 ff             	lea    -0x1(%rax),%edx
  8004201a12:	48 8b 45 c8          	mov    -0x38(%rbp),%rax
  8004201a16:	48 63 d2             	movslq %edx,%rdx
  8004201a19:	48 c7 04 d0 00 00 00 	movq   $0x0,(%rax,%rdx,8)
  8004201a20:	00 
  8004201a21:	eb 52                	jmp    8004201a75 <multiboot_read+0x418>
        } else if(prev_addr + prev_length > this_addr) {
  8004201a23:	48 8b 85 78 ff ff ff 	mov    -0x88(%rbp),%rax
  8004201a2a:	48 8b 55 80          	mov    -0x80(%rbp),%rdx
  8004201a2e:	48 01 d0             	add    %rdx,%rax
  8004201a31:	48 3b 45 88          	cmp    -0x78(%rbp),%rax
  8004201a35:	76 3e                	jbe    8004201a75 <multiboot_read+0x418>
            //Overlapping regions
            uint32_t type = restrictive_type(prev->type, this->type);
  8004201a37:	48 8b 45 90          	mov    -0x70(%rbp),%rax
  8004201a3b:	8b 50 14             	mov    0x14(%rax),%edx
  8004201a3e:	48 8b 45 98          	mov    -0x68(%rbp),%rax
  8004201a42:	8b 40 14             	mov    0x14(%rax),%eax
  8004201a45:	89 d6                	mov    %edx,%esi
  8004201a47:	89 c7                	mov    %eax,%edi
  8004201a49:	48 b8 bd 15 20 04 80 	movabs $0x80042015bd,%rax
  8004201a50:	00 00 00 
  8004201a53:	ff d0                	callq  *%rax
  8004201a55:	89 85 6c ff ff ff    	mov    %eax,-0x94(%rbp)
            prev->type = type;
  8004201a5b:	48 8b 45 98          	mov    -0x68(%rbp),%rax
  8004201a5f:	8b 95 6c ff ff ff    	mov    -0x94(%rbp),%edx
  8004201a65:	89 50 14             	mov    %edx,0x14(%rax)
            this->type = type;
  8004201a68:	48 8b 45 90          	mov    -0x70(%rbp),%rax
  8004201a6c:	8b 95 6c ff ff ff    	mov    -0x94(%rbp),%edx
  8004201a72:	89 50 14             	mov    %edx,0x14(%rax)
        mmap_list[j] = mmap;
    }
    cprintf("\n");

    // Sanitize the list
    for(i=1;i < (mbinfo->mmap_length / (sizeof(memory_map_t))); i++) {
  8004201a75:	83 45 ec 01          	addl   $0x1,-0x14(%rbp)
  8004201a79:	8b 45 ec             	mov    -0x14(%rbp),%eax
  8004201a7c:	48 63 c8             	movslq %eax,%rcx
  8004201a7f:	48 8b 85 58 ff ff ff 	mov    -0xa8(%rbp),%rax
  8004201a86:	8b 40 2c             	mov    0x2c(%rax),%eax
  8004201a89:	ba ab aa aa aa       	mov    $0xaaaaaaab,%edx
  8004201a8e:	f7 e2                	mul    %edx
  8004201a90:	89 d0                	mov    %edx,%eax
  8004201a92:	c1 e8 04             	shr    $0x4,%eax
  8004201a95:	89 c0                	mov    %eax,%eax
  8004201a97:	48 39 c1             	cmp    %rax,%rcx
  8004201a9a:	0f 82 46 fe ff ff    	jb     80042018e6 <multiboot_read+0x289>
            prev->type = type;
            this->type = type;
        }
    }

    for(i=0;i < (mbinfo->mmap_length / (sizeof(memory_map_t))); i++) {
  8004201aa0:	c7 45 ec 00 00 00 00 	movl   $0x0,-0x14(%rbp)
  8004201aa7:	e9 dc 00 00 00       	jmpq   8004201b88 <multiboot_read+0x52b>
        memory_map_t* mmap = mmap_list[i];
  8004201aac:	48 8b 45 c8          	mov    -0x38(%rbp),%rax
  8004201ab0:	8b 55 ec             	mov    -0x14(%rbp),%edx
  8004201ab3:	48 63 d2             	movslq %edx,%rdx
  8004201ab6:	48 8b 04 d0          	mov    (%rax,%rdx,8),%rax
  8004201aba:	48 89 85 60 ff ff ff 	mov    %rax,-0xa0(%rbp)
        if(mmap) {
  8004201ac1:	48 83 bd 60 ff ff ff 	cmpq   $0x0,-0xa0(%rbp)
  8004201ac8:	00 
  8004201ac9:	0f 84 b5 00 00 00    	je     8004201b84 <multiboot_read+0x527>
            if(mmap->type == MB_TYPE_USABLE || mmap->type == MB_TYPE_ACPI_RECLM) {
  8004201acf:	48 8b 85 60 ff ff ff 	mov    -0xa0(%rbp),%rax
  8004201ad6:	8b 40 14             	mov    0x14(%rax),%eax
  8004201ad9:	83 f8 01             	cmp    $0x1,%eax
  8004201adc:	74 13                	je     8004201af1 <multiboot_read+0x494>
  8004201ade:	48 8b 85 60 ff ff ff 	mov    -0xa0(%rbp),%rax
  8004201ae5:	8b 40 14             	mov    0x14(%rax),%eax
  8004201ae8:	83 f8 03             	cmp    $0x3,%eax
  8004201aeb:	0f 85 93 00 00 00    	jne    8004201b84 <multiboot_read+0x527>
                if(mmap->base_addr_low < 0x100000 && mmap->base_addr_high == 0)
  8004201af1:	48 8b 85 60 ff ff ff 	mov    -0xa0(%rbp),%rax
  8004201af8:	8b 40 04             	mov    0x4(%rax),%eax
  8004201afb:	3d ff ff 0f 00       	cmp    $0xfffff,%eax
  8004201b00:	77 49                	ja     8004201b4b <multiboot_read+0x4ee>
  8004201b02:	48 8b 85 60 ff ff ff 	mov    -0xa0(%rbp),%rax
  8004201b09:	8b 40 08             	mov    0x8(%rax),%eax
  8004201b0c:	85 c0                	test   %eax,%eax
  8004201b0e:	75 3b                	jne    8004201b4b <multiboot_read+0x4ee>
                    *basemem += APPEND_HILO(mmap->length_high, mmap->length_low);
  8004201b10:	48 8b 85 50 ff ff ff 	mov    -0xb0(%rbp),%rax
  8004201b17:	48 8b 10             	mov    (%rax),%rdx
  8004201b1a:	48 8b 85 60 ff ff ff 	mov    -0xa0(%rbp),%rax
  8004201b21:	8b 40 10             	mov    0x10(%rax),%eax
  8004201b24:	89 c0                	mov    %eax,%eax
  8004201b26:	48 c1 e0 20          	shl    $0x20,%rax
  8004201b2a:	48 89 c1             	mov    %rax,%rcx
  8004201b2d:	48 8b 85 60 ff ff ff 	mov    -0xa0(%rbp),%rax
  8004201b34:	8b 40 0c             	mov    0xc(%rax),%eax
  8004201b37:	89 c0                	mov    %eax,%eax
  8004201b39:	48 01 c8             	add    %rcx,%rax
  8004201b3c:	48 01 c2             	add    %rax,%rdx
  8004201b3f:	48 8b 85 50 ff ff ff 	mov    -0xb0(%rbp),%rax
  8004201b46:	48 89 10             	mov    %rdx,(%rax)
  8004201b49:	eb 39                	jmp    8004201b84 <multiboot_read+0x527>
                else
                    *extmem += APPEND_HILO(mmap->length_high, mmap->length_low);
  8004201b4b:	48 8b 85 48 ff ff ff 	mov    -0xb8(%rbp),%rax
  8004201b52:	48 8b 10             	mov    (%rax),%rdx
  8004201b55:	48 8b 85 60 ff ff ff 	mov    -0xa0(%rbp),%rax
  8004201b5c:	8b 40 10             	mov    0x10(%rax),%eax
  8004201b5f:	89 c0                	mov    %eax,%eax
  8004201b61:	48 c1 e0 20          	shl    $0x20,%rax
  8004201b65:	48 89 c1             	mov    %rax,%rcx
  8004201b68:	48 8b 85 60 ff ff ff 	mov    -0xa0(%rbp),%rax
  8004201b6f:	8b 40 0c             	mov    0xc(%rax),%eax
  8004201b72:	89 c0                	mov    %eax,%eax
  8004201b74:	48 01 c8             	add    %rcx,%rax
  8004201b77:	48 01 c2             	add    %rax,%rdx
  8004201b7a:	48 8b 85 48 ff ff ff 	mov    -0xb8(%rbp),%rax
  8004201b81:	48 89 10             	mov    %rdx,(%rax)
            prev->type = type;
            this->type = type;
        }
    }

    for(i=0;i < (mbinfo->mmap_length / (sizeof(memory_map_t))); i++) {
  8004201b84:	83 45 ec 01          	addl   $0x1,-0x14(%rbp)
  8004201b88:	8b 45 ec             	mov    -0x14(%rbp),%eax
  8004201b8b:	48 63 c8             	movslq %eax,%rcx
  8004201b8e:	48 8b 85 58 ff ff ff 	mov    -0xa8(%rbp),%rax
  8004201b95:	8b 40 2c             	mov    0x2c(%rax),%eax
  8004201b98:	ba ab aa aa aa       	mov    $0xaaaaaaab,%edx
  8004201b9d:	f7 e2                	mul    %edx
  8004201b9f:	89 d0                	mov    %edx,%eax
  8004201ba1:	c1 e8 04             	shr    $0x4,%eax
  8004201ba4:	89 c0                	mov    %eax,%eax
  8004201ba6:	48 39 c1             	cmp    %rax,%rcx
  8004201ba9:	0f 82 fd fe ff ff    	jb     8004201aac <multiboot_read+0x44f>
  8004201baf:	4c 89 e4             	mov    %r12,%rsp
                else
                    *extmem += APPEND_HILO(mmap->length_high, mmap->length_low);
            }
        }
    }
}
  8004201bb2:	48 8d 65 f0          	lea    -0x10(%rbp),%rsp
  8004201bb6:	5b                   	pop    %rbx
  8004201bb7:	41 5c                	pop    %r12
  8004201bb9:	5d                   	pop    %rbp
  8004201bba:	c3                   	retq   

0000008004201bbb <i386_detect_memory>:

static void
i386_detect_memory(void)
{
  8004201bbb:	55                   	push   %rbp
  8004201bbc:	48 89 e5             	mov    %rsp,%rbp
  8004201bbf:	48 83 ec 50          	sub    $0x50,%rsp
    size_t npages_extmem;
    size_t basemem = 0;
  8004201bc3:	48 c7 45 c0 00 00 00 	movq   $0x0,-0x40(%rbp)
  8004201bca:	00 
    size_t extmem = 0;
  8004201bcb:	48 c7 45 b8 00 00 00 	movq   $0x0,-0x48(%rbp)
  8004201bd2:	00 

    // Check if the bootloader passed us a multiboot structure
    extern char multiboot_info[];
    uintptr_t* mbp = (uintptr_t*)multiboot_info;
  8004201bd3:	48 b8 00 70 10 00 00 	movabs $0x107000,%rax
  8004201bda:	00 00 00 
  8004201bdd:	48 89 45 f0          	mov    %rax,-0x10(%rbp)
    multiboot_info_t * mbinfo = (multiboot_info_t*)*mbp;
  8004201be1:	48 8b 45 f0          	mov    -0x10(%rbp),%rax
  8004201be5:	48 8b 00             	mov    (%rax),%rax
  8004201be8:	48 89 45 e8          	mov    %rax,-0x18(%rbp)

    if(mbinfo && (mbinfo->flags & MB_FLAG_MMAP)) {
  8004201bec:	48 83 7d e8 00       	cmpq   $0x0,-0x18(%rbp)
  8004201bf1:	74 2d                	je     8004201c20 <i386_detect_memory+0x65>
  8004201bf3:	48 8b 45 e8          	mov    -0x18(%rbp),%rax
  8004201bf7:	8b 00                	mov    (%rax),%eax
  8004201bf9:	83 e0 40             	and    $0x40,%eax
  8004201bfc:	85 c0                	test   %eax,%eax
  8004201bfe:	74 20                	je     8004201c20 <i386_detect_memory+0x65>
        multiboot_read(mbinfo, &basemem, &extmem);
  8004201c00:	48 8d 55 b8          	lea    -0x48(%rbp),%rdx
  8004201c04:	48 8d 4d c0          	lea    -0x40(%rbp),%rcx
  8004201c08:	48 8b 45 e8          	mov    -0x18(%rbp),%rax
  8004201c0c:	48 89 ce             	mov    %rcx,%rsi
  8004201c0f:	48 89 c7             	mov    %rax,%rdi
  8004201c12:	48 b8 5d 16 20 04 80 	movabs $0x800420165d,%rax
  8004201c19:	00 00 00 
  8004201c1c:	ff d0                	callq  *%rax
  8004201c1e:	eb 34                	jmp    8004201c54 <i386_detect_memory+0x99>
    } else {
        basemem = (nvram_read(NVRAM_BASELO) * 1024);
  8004201c20:	bf 15 00 00 00       	mov    $0x15,%edi
  8004201c25:	48 b8 1e 16 20 04 80 	movabs $0x800420161e,%rax
  8004201c2c:	00 00 00 
  8004201c2f:	ff d0                	callq  *%rax
  8004201c31:	c1 e0 0a             	shl    $0xa,%eax
  8004201c34:	48 98                	cltq   
  8004201c36:	48 89 45 c0          	mov    %rax,-0x40(%rbp)
        extmem = (nvram_read(NVRAM_EXTLO) * 1024);
  8004201c3a:	bf 17 00 00 00       	mov    $0x17,%edi
  8004201c3f:	48 b8 1e 16 20 04 80 	movabs $0x800420161e,%rax
  8004201c46:	00 00 00 
  8004201c49:	ff d0                	callq  *%rax
  8004201c4b:	c1 e0 0a             	shl    $0xa,%eax
  8004201c4e:	48 98                	cltq   
  8004201c50:	48 89 45 b8          	mov    %rax,-0x48(%rbp)
    }

    assert(basemem);
  8004201c54:	48 8b 45 c0          	mov    -0x40(%rbp),%rax
  8004201c58:	48 85 c0             	test   %rax,%rax
  8004201c5b:	75 35                	jne    8004201c92 <i386_detect_memory+0xd7>
  8004201c5d:	48 b9 21 e7 20 04 80 	movabs $0x800420e721,%rcx
  8004201c64:	00 00 00 
  8004201c67:	48 ba 29 e7 20 04 80 	movabs $0x800420e729,%rdx
  8004201c6e:	00 00 00 
  8004201c71:	be 84 00 00 00       	mov    $0x84,%esi
  8004201c76:	48 bf 3e e7 20 04 80 	movabs $0x800420e73e,%rdi
  8004201c7d:	00 00 00 
  8004201c80:	b8 00 00 00 00       	mov    $0x0,%eax
  8004201c85:	49 b8 14 01 20 04 80 	movabs $0x8004200114,%r8
  8004201c8c:	00 00 00 
  8004201c8f:	41 ff d0             	callq  *%r8

    npages_basemem = basemem / PGSIZE;
  8004201c92:	48 8b 45 c0          	mov    -0x40(%rbp),%rax
  8004201c96:	48 c1 e8 0c          	shr    $0xc,%rax
  8004201c9a:	48 89 c2             	mov    %rax,%rdx
  8004201c9d:	48 b8 d0 28 22 04 80 	movabs $0x80042228d0,%rax
  8004201ca4:	00 00 00 
  8004201ca7:	48 89 10             	mov    %rdx,(%rax)
    npages_extmem = extmem / PGSIZE;
  8004201caa:	48 8b 45 b8          	mov    -0x48(%rbp),%rax
  8004201cae:	48 c1 e8 0c          	shr    $0xc,%rax
  8004201cb2:	48 89 45 f8          	mov    %rax,-0x8(%rbp)

    if(nvram_read(NVRAM_EXTLO) == 0xffff) {
  8004201cb6:	bf 17 00 00 00       	mov    $0x17,%edi
  8004201cbb:	48 b8 1e 16 20 04 80 	movabs $0x800420161e,%rax
  8004201cc2:	00 00 00 
  8004201cc5:	ff d0                	callq  *%rax
  8004201cc7:	3d ff ff 00 00       	cmp    $0xffff,%eax
  8004201ccc:	75 2c                	jne    8004201cfa <i386_detect_memory+0x13f>
        // EXTMEM > 16M in blocks of 64k
        size_t pextmem = nvram_read(NVRAM_EXTGT16LO) * (64 * 1024);
  8004201cce:	bf 34 00 00 00       	mov    $0x34,%edi
  8004201cd3:	48 b8 1e 16 20 04 80 	movabs $0x800420161e,%rax
  8004201cda:	00 00 00 
  8004201cdd:	ff d0                	callq  *%rax
  8004201cdf:	c1 e0 10             	shl    $0x10,%eax
  8004201ce2:	48 98                	cltq   
  8004201ce4:	48 89 45 e0          	mov    %rax,-0x20(%rbp)
        npages_extmem = ((16 * 1024 * 1024) + pextmem - (1 * 1024 * 1024)) / PGSIZE;
  8004201ce8:	48 8b 45 e0          	mov    -0x20(%rbp),%rax
  8004201cec:	48 05 00 00 f0 00    	add    $0xf00000,%rax
  8004201cf2:	48 c1 e8 0c          	shr    $0xc,%rax
  8004201cf6:	48 89 45 f8          	mov    %rax,-0x8(%rbp)
    }

    // Calculate the number of physical pages available in both base
    // and extended memory.
    if (npages_extmem)
  8004201cfa:	48 83 7d f8 00       	cmpq   $0x0,-0x8(%rbp)
  8004201cff:	74 1a                	je     8004201d1b <i386_detect_memory+0x160>
        npages = (EXTPHYSMEM / PGSIZE) + npages_extmem;
  8004201d01:	48 8b 45 f8          	mov    -0x8(%rbp),%rax
  8004201d05:	48 8d 90 00 01 00 00 	lea    0x100(%rax),%rdx
  8004201d0c:	48 b8 88 2d 22 04 80 	movabs $0x8004222d88,%rax
  8004201d13:	00 00 00 
  8004201d16:	48 89 10             	mov    %rdx,(%rax)
  8004201d19:	eb 1a                	jmp    8004201d35 <i386_detect_memory+0x17a>
    else
        npages = npages_basemem;
  8004201d1b:	48 b8 d0 28 22 04 80 	movabs $0x80042228d0,%rax
  8004201d22:	00 00 00 
  8004201d25:	48 8b 10             	mov    (%rax),%rdx
  8004201d28:	48 b8 88 2d 22 04 80 	movabs $0x8004222d88,%rax
  8004201d2f:	00 00 00 
  8004201d32:	48 89 10             	mov    %rdx,(%rax)

    cprintf("Physical memory: %uM available, base = %uK, extended = %uK, npages = %d\n",
  8004201d35:	48 b8 88 2d 22 04 80 	movabs $0x8004222d88,%rax
  8004201d3c:	00 00 00 
  8004201d3f:	48 8b 30             	mov    (%rax),%rsi
            npages * PGSIZE / (1024 * 1024),
            npages_basemem * PGSIZE / 1024,
            npages_extmem * PGSIZE / 1024,
  8004201d42:	48 8b 45 f8          	mov    -0x8(%rbp),%rax
  8004201d46:	48 c1 e0 0c          	shl    $0xc,%rax
    if (npages_extmem)
        npages = (EXTPHYSMEM / PGSIZE) + npages_extmem;
    else
        npages = npages_basemem;

    cprintf("Physical memory: %uM available, base = %uK, extended = %uK, npages = %d\n",
  8004201d4a:	48 c1 e8 0a          	shr    $0xa,%rax
  8004201d4e:	48 89 c1             	mov    %rax,%rcx
            npages * PGSIZE / (1024 * 1024),
            npages_basemem * PGSIZE / 1024,
  8004201d51:	48 b8 d0 28 22 04 80 	movabs $0x80042228d0,%rax
  8004201d58:	00 00 00 
  8004201d5b:	48 8b 00             	mov    (%rax),%rax
  8004201d5e:	48 c1 e0 0c          	shl    $0xc,%rax
    if (npages_extmem)
        npages = (EXTPHYSMEM / PGSIZE) + npages_extmem;
    else
        npages = npages_basemem;

    cprintf("Physical memory: %uM available, base = %uK, extended = %uK, npages = %d\n",
  8004201d62:	48 c1 e8 0a          	shr    $0xa,%rax
  8004201d66:	48 89 c2             	mov    %rax,%rdx
            npages * PGSIZE / (1024 * 1024),
  8004201d69:	48 b8 88 2d 22 04 80 	movabs $0x8004222d88,%rax
  8004201d70:	00 00 00 
  8004201d73:	48 8b 00             	mov    (%rax),%rax
  8004201d76:	48 c1 e0 0c          	shl    $0xc,%rax
    if (npages_extmem)
        npages = (EXTPHYSMEM / PGSIZE) + npages_extmem;
    else
        npages = npages_basemem;

    cprintf("Physical memory: %uM available, base = %uK, extended = %uK, npages = %d\n",
  8004201d7a:	48 c1 e8 14          	shr    $0x14,%rax
  8004201d7e:	49 89 f0             	mov    %rsi,%r8
  8004201d81:	48 89 c6             	mov    %rax,%rsi
  8004201d84:	48 bf 50 e7 20 04 80 	movabs $0x800420e750,%rdi
  8004201d8b:	00 00 00 
  8004201d8e:	b8 00 00 00 00       	mov    $0x0,%eax
  8004201d93:	49 b9 50 64 20 04 80 	movabs $0x8004206450,%r9
  8004201d9a:	00 00 00 
  8004201d9d:	41 ff d1             	callq  *%r9
    //JOS 64 pages are limited by the size of both the UPAGES
    //  virtual address space, and the range from KERNBASE to UVPT.
    //
    // NB: qemu seems to have a bug that crashes the host system on 13.10 if you try to
    //     max out memory.
    uint64_t upages_max = (ULIM - UPAGES) / sizeof(struct PageInfo);
  8004201da0:	48 c7 45 d8 00 00 32 	movq   $0x320000,-0x28(%rbp)
  8004201da7:	00 
    uint64_t kern_mem_max = (UVPT - KERNBASE) / PGSIZE;
  8004201da8:	48 c7 45 d0 00 c0 ff 	movq   $0x7ffc000,-0x30(%rbp)
  8004201daf:	07 
    cprintf("Pages limited to %llu by upage address range (%uMB), Pages limited to %llu by remapped phys mem (%uMB)\n",
            upages_max, ((upages_max * PGSIZE) / (1024 * 1024)),
            kern_mem_max, kern_mem_max * PGSIZE / (1024 * 1024));
  8004201db0:	48 8b 45 d0          	mov    -0x30(%rbp),%rax
  8004201db4:	48 c1 e0 0c          	shl    $0xc,%rax
    //
    // NB: qemu seems to have a bug that crashes the host system on 13.10 if you try to
    //     max out memory.
    uint64_t upages_max = (ULIM - UPAGES) / sizeof(struct PageInfo);
    uint64_t kern_mem_max = (UVPT - KERNBASE) / PGSIZE;
    cprintf("Pages limited to %llu by upage address range (%uMB), Pages limited to %llu by remapped phys mem (%uMB)\n",
  8004201db8:	48 c1 e8 14          	shr    $0x14,%rax
  8004201dbc:	48 89 c1             	mov    %rax,%rcx
            upages_max, ((upages_max * PGSIZE) / (1024 * 1024)),
  8004201dbf:	48 8b 45 d8          	mov    -0x28(%rbp),%rax
  8004201dc3:	48 c1 e0 0c          	shl    $0xc,%rax
    //
    // NB: qemu seems to have a bug that crashes the host system on 13.10 if you try to
    //     max out memory.
    uint64_t upages_max = (ULIM - UPAGES) / sizeof(struct PageInfo);
    uint64_t kern_mem_max = (UVPT - KERNBASE) / PGSIZE;
    cprintf("Pages limited to %llu by upage address range (%uMB), Pages limited to %llu by remapped phys mem (%uMB)\n",
  8004201dc7:	48 c1 e8 14          	shr    $0x14,%rax
  8004201dcb:	48 89 c6             	mov    %rax,%rsi
  8004201dce:	48 8b 55 d0          	mov    -0x30(%rbp),%rdx
  8004201dd2:	48 8b 45 d8          	mov    -0x28(%rbp),%rax
  8004201dd6:	49 89 c8             	mov    %rcx,%r8
  8004201dd9:	48 89 d1             	mov    %rdx,%rcx
  8004201ddc:	48 89 f2             	mov    %rsi,%rdx
  8004201ddf:	48 89 c6             	mov    %rax,%rsi
  8004201de2:	48 bf a0 e7 20 04 80 	movabs $0x800420e7a0,%rdi
  8004201de9:	00 00 00 
  8004201dec:	b8 00 00 00 00       	mov    $0x0,%eax
  8004201df1:	49 b9 50 64 20 04 80 	movabs $0x8004206450,%r9
  8004201df8:	00 00 00 
  8004201dfb:	41 ff d1             	callq  *%r9
            upages_max, ((upages_max * PGSIZE) / (1024 * 1024)),
            kern_mem_max, kern_mem_max * PGSIZE / (1024 * 1024));
    uint64_t max_npages = upages_max < kern_mem_max ? upages_max : kern_mem_max;
  8004201dfe:	48 8b 45 d8          	mov    -0x28(%rbp),%rax
  8004201e02:	48 39 45 d0          	cmp    %rax,-0x30(%rbp)
  8004201e06:	48 0f 46 45 d0       	cmovbe -0x30(%rbp),%rax
  8004201e0b:	48 89 45 c8          	mov    %rax,-0x38(%rbp)

    if(npages > max_npages) {
  8004201e0f:	48 b8 88 2d 22 04 80 	movabs $0x8004222d88,%rax
  8004201e16:	00 00 00 
  8004201e19:	48 8b 00             	mov    (%rax),%rax
  8004201e1c:	48 3b 45 c8          	cmp    -0x38(%rbp),%rax
  8004201e20:	76 3a                	jbe    8004201e5c <i386_detect_memory+0x2a1>
        npages = max_npages - 1024;
  8004201e22:	48 8b 45 c8          	mov    -0x38(%rbp),%rax
  8004201e26:	48 8d 90 00 fc ff ff 	lea    -0x400(%rax),%rdx
  8004201e2d:	48 b8 88 2d 22 04 80 	movabs $0x8004222d88,%rax
  8004201e34:	00 00 00 
  8004201e37:	48 89 10             	mov    %rdx,(%rax)
        cprintf("Using only %uK of the available memory.\n", max_npages);
  8004201e3a:	48 8b 45 c8          	mov    -0x38(%rbp),%rax
  8004201e3e:	48 89 c6             	mov    %rax,%rsi
  8004201e41:	48 bf 08 e8 20 04 80 	movabs $0x800420e808,%rdi
  8004201e48:	00 00 00 
  8004201e4b:	b8 00 00 00 00       	mov    $0x0,%eax
  8004201e50:	48 ba 50 64 20 04 80 	movabs $0x8004206450,%rdx
  8004201e57:	00 00 00 
  8004201e5a:	ff d2                	callq  *%rdx
    }
}
  8004201e5c:	c9                   	leaveq 
  8004201e5d:	c3                   	retq   

0000008004201e5e <boot_alloc>:
// If we're out of memory, boot_alloc should panic.
// This function may ONLY be used during initialization,
// before the page_free_list list has been set up.
static void *
boot_alloc(uint32_t n)
{
  8004201e5e:	55                   	push   %rbp
  8004201e5f:	48 89 e5             	mov    %rsp,%rbp
  8004201e62:	48 83 ec 40          	sub    $0x40,%rsp
  8004201e66:	89 7d cc             	mov    %edi,-0x34(%rbp)
    static char *nextfree;	// virtual address of next byte of free memory
    char *result;

    if (!nextfree) {
  8004201e69:	48 b8 e0 28 22 04 80 	movabs $0x80042228e0,%rax
  8004201e70:	00 00 00 
  8004201e73:	48 8b 00             	mov    (%rax),%rax
  8004201e76:	48 85 c0             	test   %rax,%rax
  8004201e79:	75 4b                	jne    8004201ec6 <boot_alloc+0x68>
        extern char end[];
        nextfree = ROUNDUP((char *) end, PGSIZE);
  8004201e7b:	48 c7 45 f8 00 10 00 	movq   $0x1000,-0x8(%rbp)
  8004201e82:	00 
  8004201e83:	48 b8 80 3d 22 04 80 	movabs $0x8004223d80,%rax
  8004201e8a:	00 00 00 
  8004201e8d:	48 8d 50 ff          	lea    -0x1(%rax),%rdx
  8004201e91:	48 8b 45 f8          	mov    -0x8(%rbp),%rax
  8004201e95:	48 01 d0             	add    %rdx,%rax
  8004201e98:	48 89 45 f0          	mov    %rax,-0x10(%rbp)
  8004201e9c:	48 8b 45 f0          	mov    -0x10(%rbp),%rax
  8004201ea0:	ba 00 00 00 00       	mov    $0x0,%edx
  8004201ea5:	48 f7 75 f8          	divq   -0x8(%rbp)
  8004201ea9:	48 89 d0             	mov    %rdx,%rax
  8004201eac:	48 8b 55 f0          	mov    -0x10(%rbp),%rdx
  8004201eb0:	48 29 c2             	sub    %rax,%rdx
  8004201eb3:	48 89 d0             	mov    %rdx,%rax
  8004201eb6:	48 89 c2             	mov    %rax,%rdx
  8004201eb9:	48 b8 e0 28 22 04 80 	movabs $0x80042228e0,%rax
  8004201ec0:	00 00 00 
  8004201ec3:	48 89 10             	mov    %rdx,(%rax)
    }
    result = nextfree;
  8004201ec6:	48 b8 e0 28 22 04 80 	movabs $0x80042228e0,%rax
  8004201ecd:	00 00 00 
  8004201ed0:	48 8b 00             	mov    (%rax),%rax
  8004201ed3:	48 89 45 e8          	mov    %rax,-0x18(%rbp)

    if (n > 0) {
  8004201ed7:	83 7d cc 00          	cmpl   $0x0,-0x34(%rbp)
  8004201edb:	0f 84 ad 00 00 00    	je     8004201f8e <boot_alloc+0x130>
        nextfree = ROUNDUP((char *)(nextfree + n), PGSIZE);
  8004201ee1:	48 c7 45 e0 00 10 00 	movq   $0x1000,-0x20(%rbp)
  8004201ee8:	00 
  8004201ee9:	48 b8 e0 28 22 04 80 	movabs $0x80042228e0,%rax
  8004201ef0:	00 00 00 
  8004201ef3:	48 8b 10             	mov    (%rax),%rdx
  8004201ef6:	8b 45 cc             	mov    -0x34(%rbp),%eax
  8004201ef9:	48 01 d0             	add    %rdx,%rax
  8004201efc:	48 89 c2             	mov    %rax,%rdx
  8004201eff:	48 8b 45 e0          	mov    -0x20(%rbp),%rax
  8004201f03:	48 01 d0             	add    %rdx,%rax
  8004201f06:	48 83 e8 01          	sub    $0x1,%rax
  8004201f0a:	48 89 45 d8          	mov    %rax,-0x28(%rbp)
  8004201f0e:	48 8b 45 d8          	mov    -0x28(%rbp),%rax
  8004201f12:	ba 00 00 00 00       	mov    $0x0,%edx
  8004201f17:	48 f7 75 e0          	divq   -0x20(%rbp)
  8004201f1b:	48 89 d0             	mov    %rdx,%rax
  8004201f1e:	48 8b 55 d8          	mov    -0x28(%rbp),%rdx
  8004201f22:	48 29 c2             	sub    %rax,%rdx
  8004201f25:	48 89 d0             	mov    %rdx,%rax
  8004201f28:	48 89 c2             	mov    %rax,%rdx
  8004201f2b:	48 b8 e0 28 22 04 80 	movabs $0x80042228e0,%rax
  8004201f32:	00 00 00 
  8004201f35:	48 89 10             	mov    %rdx,(%rax)
        if ((uint64_t) nextfree > KERNBASE + (npages * PGSIZE)) {
  8004201f38:	48 b8 e0 28 22 04 80 	movabs $0x80042228e0,%rax
  8004201f3f:	00 00 00 
  8004201f42:	48 8b 00             	mov    (%rax),%rax
  8004201f45:	48 89 c2             	mov    %rax,%rdx
  8004201f48:	48 b8 88 2d 22 04 80 	movabs $0x8004222d88,%rax
  8004201f4f:	00 00 00 
  8004201f52:	48 8b 00             	mov    (%rax),%rax
  8004201f55:	48 05 00 40 00 08    	add    $0x8004000,%rax
  8004201f5b:	48 c1 e0 0c          	shl    $0xc,%rax
  8004201f5f:	48 39 c2             	cmp    %rax,%rdx
  8004201f62:	76 2a                	jbe    8004201f8e <boot_alloc+0x130>
            panic("boot alloc error: out of memory\n");
  8004201f64:	48 ba 38 e8 20 04 80 	movabs $0x800420e838,%rdx
  8004201f6b:	00 00 00 
  8004201f6e:	be d5 00 00 00       	mov    $0xd5,%esi
  8004201f73:	48 bf 3e e7 20 04 80 	movabs $0x800420e73e,%rdi
  8004201f7a:	00 00 00 
  8004201f7d:	b8 00 00 00 00       	mov    $0x0,%eax
  8004201f82:	48 b9 14 01 20 04 80 	movabs $0x8004200114,%rcx
  8004201f89:	00 00 00 
  8004201f8c:	ff d1                	callq  *%rcx
        }
    }

    return result;
  8004201f8e:	48 8b 45 e8          	mov    -0x18(%rbp),%rax
}
  8004201f92:	c9                   	leaveq 
  8004201f93:	c3                   	retq   

0000008004201f94 <x64_vm_init>:
//
// From UTOP to ULIM, the user is allowed to read but not write.
// Above ULIM the user cannot read or write.
void
x64_vm_init(void)
{
  8004201f94:	55                   	push   %rbp
  8004201f95:	48 89 e5             	mov    %rsp,%rbp
  8004201f98:	48 83 c4 80          	add    $0xffffffffffffff80,%rsp
    pml4e_t* pml4e;
    uint32_t cr0;
    uint64_t n;
    int r;
    struct Env *env;
    i386_detect_memory();
  8004201f9c:	48 b8 bb 1b 20 04 80 	movabs $0x8004201bbb,%rax
  8004201fa3:	00 00 00 
  8004201fa6:	ff d0                	callq  *%rax
    //////////////////////////////////////////////////////////////////////
    // create initial page directory.
    // panic("x64_vm_init: this function is not finished\n");
    pml4e = boot_alloc(PGSIZE);
  8004201fa8:	bf 00 10 00 00       	mov    $0x1000,%edi
  8004201fad:	48 b8 5e 1e 20 04 80 	movabs $0x8004201e5e,%rax
  8004201fb4:	00 00 00 
  8004201fb7:	ff d0                	callq  *%rax
  8004201fb9:	48 89 45 f8          	mov    %rax,-0x8(%rbp)
    memset(pml4e, 0, PGSIZE);
  8004201fbd:	48 8b 45 f8          	mov    -0x8(%rbp),%rax
  8004201fc1:	ba 00 10 00 00       	mov    $0x1000,%edx
  8004201fc6:	be 00 00 00 00       	mov    $0x0,%esi
  8004201fcb:	48 89 c7             	mov    %rax,%rdi
  8004201fce:	48 b8 a0 7f 20 04 80 	movabs $0x8004207fa0,%rax
  8004201fd5:	00 00 00 
  8004201fd8:	ff d0                	callq  *%rax
    boot_pml4e = pml4e;
  8004201fda:	48 b8 80 2d 22 04 80 	movabs $0x8004222d80,%rax
  8004201fe1:	00 00 00 
  8004201fe4:	48 8b 55 f8          	mov    -0x8(%rbp),%rdx
  8004201fe8:	48 89 10             	mov    %rdx,(%rax)
    boot_cr3 = PADDR(pml4e);
  8004201feb:	48 8b 45 f8          	mov    -0x8(%rbp),%rax
  8004201fef:	48 89 45 f0          	mov    %rax,-0x10(%rbp)
  8004201ff3:	48 b8 ff ff ff 03 80 	movabs $0x8003ffffff,%rax
  8004201ffa:	00 00 00 
  8004201ffd:	48 39 45 f0          	cmp    %rax,-0x10(%rbp)
  8004202001:	77 32                	ja     8004202035 <x64_vm_init+0xa1>
  8004202003:	48 8b 45 f0          	mov    -0x10(%rbp),%rax
  8004202007:	48 89 c1             	mov    %rax,%rcx
  800420200a:	48 ba 60 e8 20 04 80 	movabs $0x800420e860,%rdx
  8004202011:	00 00 00 
  8004202014:	be f4 00 00 00       	mov    $0xf4,%esi
  8004202019:	48 bf 3e e7 20 04 80 	movabs $0x800420e73e,%rdi
  8004202020:	00 00 00 
  8004202023:	b8 00 00 00 00       	mov    $0x0,%eax
  8004202028:	49 b8 14 01 20 04 80 	movabs $0x8004200114,%r8
  800420202f:	00 00 00 
  8004202032:	41 ff d0             	callq  *%r8
  8004202035:	48 ba 00 00 00 fc 7f 	movabs $0xffffff7ffc000000,%rdx
  800420203c:	ff ff ff 
  800420203f:	48 8b 45 f0          	mov    -0x10(%rbp),%rax
  8004202043:	48 01 c2             	add    %rax,%rdx
  8004202046:	48 b8 78 2d 22 04 80 	movabs $0x8004222d78,%rax
  800420204d:	00 00 00 
  8004202050:	48 89 10             	mov    %rdx,(%rax)
    // Allocate an array of npages 'struct PageInfo's and store it in 'pages'.
    // The kernel uses this array to keep track of physical pages: for
    // each physical page, there is a corresponding struct PageInfo in this
    // array.  'npages' is the number of physical pages in memory.
    // Your code goes here:
    uint32_t page_size = ROUNDUP(sizeof(struct PageInfo) * npages, PGSIZE);
  8004202053:	48 c7 45 e8 00 10 00 	movq   $0x1000,-0x18(%rbp)
  800420205a:	00 
  800420205b:	48 b8 88 2d 22 04 80 	movabs $0x8004222d88,%rax
  8004202062:	00 00 00 
  8004202065:	48 8b 00             	mov    (%rax),%rax
  8004202068:	48 c1 e0 04          	shl    $0x4,%rax
  800420206c:	48 89 c2             	mov    %rax,%rdx
  800420206f:	48 8b 45 e8          	mov    -0x18(%rbp),%rax
  8004202073:	48 01 d0             	add    %rdx,%rax
  8004202076:	48 83 e8 01          	sub    $0x1,%rax
  800420207a:	48 89 45 e0          	mov    %rax,-0x20(%rbp)
  800420207e:	48 8b 45 e0          	mov    -0x20(%rbp),%rax
  8004202082:	ba 00 00 00 00       	mov    $0x0,%edx
  8004202087:	48 f7 75 e8          	divq   -0x18(%rbp)
  800420208b:	48 89 d0             	mov    %rdx,%rax
  800420208e:	48 8b 55 e0          	mov    -0x20(%rbp),%rdx
  8004202092:	48 29 c2             	sub    %rax,%rdx
  8004202095:	48 89 d0             	mov    %rdx,%rax
  8004202098:	89 45 dc             	mov    %eax,-0x24(%rbp)
    pages = boot_alloc(page_size);
  800420209b:	8b 45 dc             	mov    -0x24(%rbp),%eax
  800420209e:	89 c7                	mov    %eax,%edi
  80042020a0:	48 b8 5e 1e 20 04 80 	movabs $0x8004201e5e,%rax
  80042020a7:	00 00 00 
  80042020aa:	ff d0                	callq  *%rax
  80042020ac:	48 ba 90 2d 22 04 80 	movabs $0x8004222d90,%rdx
  80042020b3:	00 00 00 
  80042020b6:	48 89 02             	mov    %rax,(%rdx)
    //////////////////////////////////////////////////////////////////////
    // Now that we've allocated the initial kernel data structures, we set
    // up the list of free physical pages. Once we've done so, all further
    // memory management will go through the page_* functions. In
    // particular, we can now map memory using boot_map_region or page_insert
    page_init();
  80042020b9:	48 b8 11 24 20 04 80 	movabs $0x8004202411,%rax
  80042020c0:	00 00 00 
  80042020c3:	ff d0                	callq  *%rax
    //    - the new image at UPAGES -- kernel R, us/er R
    //      (ie. perm = PTE_U | PTE_P)
    //    - pages itself -- kernel RW, user NONE
    // Your code goes here:

    boot_map_region(pml4e, UPAGES, page_size, PADDR(pages), PTE_U);
  80042020c5:	48 b8 90 2d 22 04 80 	movabs $0x8004222d90,%rax
  80042020cc:	00 00 00 
  80042020cf:	48 8b 00             	mov    (%rax),%rax
  80042020d2:	48 89 45 d0          	mov    %rax,-0x30(%rbp)
  80042020d6:	48 b8 ff ff ff 03 80 	movabs $0x8003ffffff,%rax
  80042020dd:	00 00 00 
  80042020e0:	48 39 45 d0          	cmp    %rax,-0x30(%rbp)
  80042020e4:	77 32                	ja     8004202118 <x64_vm_init+0x184>
  80042020e6:	48 8b 45 d0          	mov    -0x30(%rbp),%rax
  80042020ea:	48 89 c1             	mov    %rax,%rcx
  80042020ed:	48 ba 60 e8 20 04 80 	movabs $0x800420e860,%rdx
  80042020f4:	00 00 00 
  80042020f7:	be 10 01 00 00       	mov    $0x110,%esi
  80042020fc:	48 bf 3e e7 20 04 80 	movabs $0x800420e73e,%rdi
  8004202103:	00 00 00 
  8004202106:	b8 00 00 00 00       	mov    $0x0,%eax
  800420210b:	49 b8 14 01 20 04 80 	movabs $0x8004200114,%r8
  8004202112:	00 00 00 
  8004202115:	41 ff d0             	callq  *%r8
  8004202118:	48 ba 00 00 00 fc 7f 	movabs $0xffffff7ffc000000,%rdx
  800420211f:	ff ff ff 
  8004202122:	48 8b 45 d0          	mov    -0x30(%rbp),%rax
  8004202126:	48 8d 0c 02          	lea    (%rdx,%rax,1),%rcx
  800420212a:	8b 55 dc             	mov    -0x24(%rbp),%edx
  800420212d:	48 8b 45 f8          	mov    -0x8(%rbp),%rax
  8004202131:	41 b8 04 00 00 00    	mov    $0x4,%r8d
  8004202137:	48 be 00 00 a0 00 80 	movabs $0x8000a00000,%rsi
  800420213e:	00 00 00 
  8004202141:	48 89 c7             	mov    %rax,%rdi
  8004202144:	48 b8 8f 2c 20 04 80 	movabs $0x8004202c8f,%rax
  800420214b:	00 00 00 
  800420214e:	ff d0                	callq  *%rax
    boot_map_region(pml4e, (uintptr_t) pages, PGSIZE, PADDR(pages), PTE_W);
  8004202150:	48 b8 90 2d 22 04 80 	movabs $0x8004222d90,%rax
  8004202157:	00 00 00 
  800420215a:	48 8b 00             	mov    (%rax),%rax
  800420215d:	48 89 45 c8          	mov    %rax,-0x38(%rbp)
  8004202161:	48 b8 ff ff ff 03 80 	movabs $0x8003ffffff,%rax
  8004202168:	00 00 00 
  800420216b:	48 39 45 c8          	cmp    %rax,-0x38(%rbp)
  800420216f:	77 32                	ja     80042021a3 <x64_vm_init+0x20f>
  8004202171:	48 8b 45 c8          	mov    -0x38(%rbp),%rax
  8004202175:	48 89 c1             	mov    %rax,%rcx
  8004202178:	48 ba 60 e8 20 04 80 	movabs $0x800420e860,%rdx
  800420217f:	00 00 00 
  8004202182:	be 11 01 00 00       	mov    $0x111,%esi
  8004202187:	48 bf 3e e7 20 04 80 	movabs $0x800420e73e,%rdi
  800420218e:	00 00 00 
  8004202191:	b8 00 00 00 00       	mov    $0x0,%eax
  8004202196:	49 b8 14 01 20 04 80 	movabs $0x8004200114,%r8
  800420219d:	00 00 00 
  80042021a0:	41 ff d0             	callq  *%r8
  80042021a3:	48 ba 00 00 00 fc 7f 	movabs $0xffffff7ffc000000,%rdx
  80042021aa:	ff ff ff 
  80042021ad:	48 8b 45 c8          	mov    -0x38(%rbp),%rax
  80042021b1:	48 01 c2             	add    %rax,%rdx
  80042021b4:	48 b8 90 2d 22 04 80 	movabs $0x8004222d90,%rax
  80042021bb:	00 00 00 
  80042021be:	48 8b 00             	mov    (%rax),%rax
  80042021c1:	48 89 c6             	mov    %rax,%rsi
  80042021c4:	48 8b 45 f8          	mov    -0x8(%rbp),%rax
  80042021c8:	41 b8 02 00 00 00    	mov    $0x2,%r8d
  80042021ce:	48 89 d1             	mov    %rdx,%rcx
  80042021d1:	ba 00 10 00 00       	mov    $0x1000,%edx
  80042021d6:	48 89 c7             	mov    %rax,%rdi
  80042021d9:	48 b8 8f 2c 20 04 80 	movabs $0x8004202c8f,%rax
  80042021e0:	00 00 00 
  80042021e3:	ff d0                	callq  *%rax
    //       the kernel overflows its stack, it will fault rather than
    //       overwrite memory.  Known as a "guard page".
    //     Permissions: kernel RW, user NONE
    // Your code goes here:

    boot_map_region(pml4e, KSTACKTOP-KSTKSIZE, 16*PGSIZE, PADDR(bootstack), PTE_W);
  80042021e5:	48 b8 00 20 21 04 80 	movabs $0x8004212000,%rax
  80042021ec:	00 00 00 
  80042021ef:	48 89 45 c0          	mov    %rax,-0x40(%rbp)
  80042021f3:	48 b8 ff ff ff 03 80 	movabs $0x8003ffffff,%rax
  80042021fa:	00 00 00 
  80042021fd:	48 39 45 c0          	cmp    %rax,-0x40(%rbp)
  8004202201:	77 32                	ja     8004202235 <x64_vm_init+0x2a1>
  8004202203:	48 8b 45 c0          	mov    -0x40(%rbp),%rax
  8004202207:	48 89 c1             	mov    %rax,%rcx
  800420220a:	48 ba 60 e8 20 04 80 	movabs $0x800420e860,%rdx
  8004202211:	00 00 00 
  8004202214:	be 1f 01 00 00       	mov    $0x11f,%esi
  8004202219:	48 bf 3e e7 20 04 80 	movabs $0x800420e73e,%rdi
  8004202220:	00 00 00 
  8004202223:	b8 00 00 00 00       	mov    $0x0,%eax
  8004202228:	49 b8 14 01 20 04 80 	movabs $0x8004200114,%r8
  800420222f:	00 00 00 
  8004202232:	41 ff d0             	callq  *%r8
  8004202235:	48 ba 00 00 00 fc 7f 	movabs $0xffffff7ffc000000,%rdx
  800420223c:	ff ff ff 
  800420223f:	48 8b 45 c0          	mov    -0x40(%rbp),%rax
  8004202243:	48 01 c2             	add    %rax,%rdx
  8004202246:	48 8b 45 f8          	mov    -0x8(%rbp),%rax
  800420224a:	41 b8 02 00 00 00    	mov    $0x2,%r8d
  8004202250:	48 89 d1             	mov    %rdx,%rcx
  8004202253:	ba 00 00 01 00       	mov    $0x10000,%edx
  8004202258:	48 be 00 00 ff 03 80 	movabs $0x8003ff0000,%rsi
  800420225f:	00 00 00 
  8004202262:	48 89 c7             	mov    %rax,%rdi
  8004202265:	48 b8 8f 2c 20 04 80 	movabs $0x8004202c8f,%rax
  800420226c:	00 00 00 
  800420226f:	ff d0                	callq  *%rax
    // Ie.  the VA range [KERNBASE, npages*PGSIZE) should map to
    //      the PA range [0, npages*PGSIZE)
    // Permissions: kernel RW, user NONE
    // Your code goes here:

    boot_map_region(pml4e, KERNBASE, npages * PGSIZE, (physaddr_t)0x0, PTE_W);
  8004202271:	48 b8 88 2d 22 04 80 	movabs $0x8004222d88,%rax
  8004202278:	00 00 00 
  800420227b:	48 8b 00             	mov    (%rax),%rax
  800420227e:	48 c1 e0 0c          	shl    $0xc,%rax
  8004202282:	48 89 c2             	mov    %rax,%rdx
  8004202285:	48 8b 45 f8          	mov    -0x8(%rbp),%rax
  8004202289:	41 b8 02 00 00 00    	mov    $0x2,%r8d
  800420228f:	b9 00 00 00 00       	mov    $0x0,%ecx
  8004202294:	48 be 00 00 00 04 80 	movabs $0x8004000000,%rsi
  800420229b:	00 00 00 
  800420229e:	48 89 c7             	mov    %rax,%rdi
  80042022a1:	48 b8 8f 2c 20 04 80 	movabs $0x8004202c8f,%rax
  80042022a8:	00 00 00 
  80042022ab:	ff d0                	callq  *%rax

    // Check that the initial page directory has been set up correctly.
    check_page_free_list(1);
  80042022ad:	bf 01 00 00 00       	mov    $0x1,%edi
  80042022b2:	48 b8 32 2f 20 04 80 	movabs $0x8004202f32,%rax
  80042022b9:	00 00 00 
  80042022bc:	ff d0                	callq  *%rax
    check_page_alloc();
  80042022be:	48 b8 0f 34 20 04 80 	movabs $0x800420340f,%rax
  80042022c5:	00 00 00 
  80042022c8:	ff d0                	callq  *%rax
    page_check();
  80042022ca:	48 b8 1f 46 20 04 80 	movabs $0x800420461f,%rax
  80042022d1:	00 00 00 
  80042022d4:	ff d0                	callq  *%rax
    check_page_free_list(0);
  80042022d6:	bf 00 00 00 00       	mov    $0x0,%edi
  80042022db:	48 b8 32 2f 20 04 80 	movabs $0x8004202f32,%rax
  80042022e2:	00 00 00 
  80042022e5:	ff d0                	callq  *%rax
    check_boot_pml4e(boot_pml4e);
  80042022e7:	48 b8 80 2d 22 04 80 	movabs $0x8004222d80,%rax
  80042022ee:	00 00 00 
  80042022f1:	48 8b 00             	mov    (%rax),%rax
  80042022f4:	48 89 c7             	mov    %rax,%rdi
  80042022f7:	48 b8 fb 3d 20 04 80 	movabs $0x8004203dfb,%rax
  80042022fe:	00 00 00 
  8004202301:	ff d0                	callq  *%rax

    //////////////////////////////////////////////////////////////////////
    // Permissions: kernel RW, user NONE
    pdpe_t *pdpe = KADDR(PTE_ADDR(pml4e[1]));
  8004202303:	48 8b 45 f8          	mov    -0x8(%rbp),%rax
  8004202307:	48 83 c0 08          	add    $0x8,%rax
  800420230b:	48 8b 00             	mov    (%rax),%rax
  800420230e:	48 25 00 f0 ff ff    	and    $0xfffffffffffff000,%rax
  8004202314:	48 89 45 b8          	mov    %rax,-0x48(%rbp)
  8004202318:	48 8b 45 b8          	mov    -0x48(%rbp),%rax
  800420231c:	48 c1 e8 0c          	shr    $0xc,%rax
  8004202320:	89 45 b4             	mov    %eax,-0x4c(%rbp)
  8004202323:	8b 55 b4             	mov    -0x4c(%rbp),%edx
  8004202326:	48 b8 88 2d 22 04 80 	movabs $0x8004222d88,%rax
  800420232d:	00 00 00 
  8004202330:	48 8b 00             	mov    (%rax),%rax
  8004202333:	48 39 c2             	cmp    %rax,%rdx
  8004202336:	72 32                	jb     800420236a <x64_vm_init+0x3d6>
  8004202338:	48 8b 45 b8          	mov    -0x48(%rbp),%rax
  800420233c:	48 89 c1             	mov    %rax,%rcx
  800420233f:	48 ba b0 e6 20 04 80 	movabs $0x800420e6b0,%rdx
  8004202346:	00 00 00 
  8004202349:	be 34 01 00 00       	mov    $0x134,%esi
  800420234e:	48 bf 3e e7 20 04 80 	movabs $0x800420e73e,%rdi
  8004202355:	00 00 00 
  8004202358:	b8 00 00 00 00       	mov    $0x0,%eax
  800420235d:	49 b8 14 01 20 04 80 	movabs $0x8004200114,%r8
  8004202364:	00 00 00 
  8004202367:	41 ff d0             	callq  *%r8
  800420236a:	48 ba 00 00 00 04 80 	movabs $0x8004000000,%rdx
  8004202371:	00 00 00 
  8004202374:	48 8b 45 b8          	mov    -0x48(%rbp),%rax
  8004202378:	48 01 d0             	add    %rdx,%rax
  800420237b:	48 89 45 a8          	mov    %rax,-0x58(%rbp)
    pde_t *pgdir = KADDR(PTE_ADDR(pdpe[0]));
  800420237f:	48 8b 45 a8          	mov    -0x58(%rbp),%rax
  8004202383:	48 8b 00             	mov    (%rax),%rax
  8004202386:	48 25 00 f0 ff ff    	and    $0xfffffffffffff000,%rax
  800420238c:	48 89 45 a0          	mov    %rax,-0x60(%rbp)
  8004202390:	48 8b 45 a0          	mov    -0x60(%rbp),%rax
  8004202394:	48 c1 e8 0c          	shr    $0xc,%rax
  8004202398:	89 45 9c             	mov    %eax,-0x64(%rbp)
  800420239b:	8b 55 9c             	mov    -0x64(%rbp),%edx
  800420239e:	48 b8 88 2d 22 04 80 	movabs $0x8004222d88,%rax
  80042023a5:	00 00 00 
  80042023a8:	48 8b 00             	mov    (%rax),%rax
  80042023ab:	48 39 c2             	cmp    %rax,%rdx
  80042023ae:	72 32                	jb     80042023e2 <x64_vm_init+0x44e>
  80042023b0:	48 8b 45 a0          	mov    -0x60(%rbp),%rax
  80042023b4:	48 89 c1             	mov    %rax,%rcx
  80042023b7:	48 ba b0 e6 20 04 80 	movabs $0x800420e6b0,%rdx
  80042023be:	00 00 00 
  80042023c1:	be 35 01 00 00       	mov    $0x135,%esi
  80042023c6:	48 bf 3e e7 20 04 80 	movabs $0x800420e73e,%rdi
  80042023cd:	00 00 00 
  80042023d0:	b8 00 00 00 00       	mov    $0x0,%eax
  80042023d5:	49 b8 14 01 20 04 80 	movabs $0x8004200114,%r8
  80042023dc:	00 00 00 
  80042023df:	41 ff d0             	callq  *%r8
  80042023e2:	48 ba 00 00 00 04 80 	movabs $0x8004000000,%rdx
  80042023e9:	00 00 00 
  80042023ec:	48 8b 45 a0          	mov    -0x60(%rbp),%rax
  80042023f0:	48 01 d0             	add    %rdx,%rax
  80042023f3:	48 89 45 90          	mov    %rax,-0x70(%rbp)
    lcr3(boot_cr3);
  80042023f7:	48 b8 78 2d 22 04 80 	movabs $0x8004222d78,%rax
  80042023fe:	00 00 00 
  8004202401:	48 8b 00             	mov    (%rax),%rax
  8004202404:	48 89 45 88          	mov    %rax,-0x78(%rbp)
}

static __inline void
lcr3(uint64_t val)
{
	__asm __volatile("movq %0,%%cr3" : : "r" (val));
  8004202408:	48 8b 45 88          	mov    -0x78(%rbp),%rax
  800420240c:	0f 22 d8             	mov    %rax,%cr3
}
  800420240f:	c9                   	leaveq 
  8004202410:	c3                   	retq   

0000008004202411 <page_init>:
// allocator functions below to allocate and deallocate physical
// memory via the page_free_list.
//
void
page_init(void)
{
  8004202411:	55                   	push   %rbp
  8004202412:	48 89 e5             	mov    %rsp,%rbp
  8004202415:	48 83 ec 60          	sub    $0x60,%rsp
    // free pages!
    // NB: Make sure you preserve the direction in which your page_free_list
    // is constructed
    // NB: Remember to mark the memory used for initial boot page table i.e (va>=BOOT_PAGE_TABLE_START && va < BOOT_PAGE_TABLE_END) as in-use (not free)
    size_t i;
    struct PageInfo* last = NULL;
  8004202419:	48 c7 45 f0 00 00 00 	movq   $0x0,-0x10(%rbp)
  8004202420:	00 

    uint64_t io_page = IOPHYSMEM / PGSIZE;
  8004202421:	48 c7 45 e0 a0 00 00 	movq   $0xa0,-0x20(%rbp)
  8004202428:	00 
    uint64_t free_page = PADDR(boot_alloc(0)) / PGSIZE;
  8004202429:	bf 00 00 00 00       	mov    $0x0,%edi
  800420242e:	48 b8 5e 1e 20 04 80 	movabs $0x8004201e5e,%rax
  8004202435:	00 00 00 
  8004202438:	ff d0                	callq  *%rax
  800420243a:	48 89 45 d8          	mov    %rax,-0x28(%rbp)
  800420243e:	48 b8 ff ff ff 03 80 	movabs $0x8003ffffff,%rax
  8004202445:	00 00 00 
  8004202448:	48 39 45 d8          	cmp    %rax,-0x28(%rbp)
  800420244c:	77 32                	ja     8004202480 <page_init+0x6f>
  800420244e:	48 8b 45 d8          	mov    -0x28(%rbp),%rax
  8004202452:	48 89 c1             	mov    %rax,%rcx
  8004202455:	48 ba 60 e8 20 04 80 	movabs $0x800420e860,%rdx
  800420245c:	00 00 00 
  800420245f:	be 61 01 00 00       	mov    $0x161,%esi
  8004202464:	48 bf 3e e7 20 04 80 	movabs $0x800420e73e,%rdi
  800420246b:	00 00 00 
  800420246e:	b8 00 00 00 00       	mov    $0x0,%eax
  8004202473:	49 b8 14 01 20 04 80 	movabs $0x8004200114,%r8
  800420247a:	00 00 00 
  800420247d:	41 ff d0             	callq  *%r8
  8004202480:	48 ba 00 00 00 fc 7f 	movabs $0xffffff7ffc000000,%rdx
  8004202487:	ff ff ff 
  800420248a:	48 8b 45 d8          	mov    -0x28(%rbp),%rax
  800420248e:	48 01 d0             	add    %rdx,%rax
  8004202491:	48 c1 e8 0c          	shr    $0xc,%rax
  8004202495:	48 89 45 d0          	mov    %rax,-0x30(%rbp)

    pages[0].pp_ref = 1;
  8004202499:	48 b8 90 2d 22 04 80 	movabs $0x8004222d90,%rax
  80042024a0:	00 00 00 
  80042024a3:	48 8b 00             	mov    (%rax),%rax
  80042024a6:	66 c7 40 08 01 00    	movw   $0x1,0x8(%rax)
    pages[0].pp_link = NULL;
  80042024ac:	48 b8 90 2d 22 04 80 	movabs $0x8004222d90,%rax
  80042024b3:	00 00 00 
  80042024b6:	48 8b 00             	mov    (%rax),%rax
  80042024b9:	48 c7 00 00 00 00 00 	movq   $0x0,(%rax)

    for (i = 1; i < npages; i++) {
  80042024c0:	48 c7 45 f8 01 00 00 	movq   $0x1,-0x8(%rbp)
  80042024c7:	00 
  80042024c8:	e9 fe 01 00 00       	jmpq   80042026cb <page_init+0x2ba>

        bool used = false;
  80042024cd:	c6 45 ef 00          	movb   $0x0,-0x11(%rbp)

        if (i >= io_page && i < free_page)
  80042024d1:	48 8b 45 f8          	mov    -0x8(%rbp),%rax
  80042024d5:	48 3b 45 e0          	cmp    -0x20(%rbp),%rax
  80042024d9:	72 0e                	jb     80042024e9 <page_init+0xd8>
  80042024db:	48 8b 45 f8          	mov    -0x8(%rbp),%rax
  80042024df:	48 3b 45 d0          	cmp    -0x30(%rbp),%rax
  80042024e3:	73 04                	jae    80042024e9 <page_init+0xd8>
            used = true;
  80042024e5:	c6 45 ef 01          	movb   $0x1,-0x11(%rbp)

        uint64_t va = KERNBASE + i * PGSIZE;
  80042024e9:	48 8b 45 f8          	mov    -0x8(%rbp),%rax
  80042024ed:	48 05 00 40 00 08    	add    $0x8004000,%rax
  80042024f3:	48 c1 e0 0c          	shl    $0xc,%rax
  80042024f7:	48 89 45 c8          	mov    %rax,-0x38(%rbp)

        if (va >= BOOT_PAGE_TABLE_START && va < BOOT_PAGE_TABLE_END)
  80042024fb:	48 b8 00 20 10 00 00 	movabs $0x102000,%rax
  8004202502:	00 00 00 
  8004202505:	48 89 45 c0          	mov    %rax,-0x40(%rbp)
  8004202509:	48 8b 45 c0          	mov    -0x40(%rbp),%rax
  800420250d:	48 c1 e8 0c          	shr    $0xc,%rax
  8004202511:	89 45 bc             	mov    %eax,-0x44(%rbp)
  8004202514:	8b 55 bc             	mov    -0x44(%rbp),%edx
  8004202517:	48 b8 88 2d 22 04 80 	movabs $0x8004222d88,%rax
  800420251e:	00 00 00 
  8004202521:	48 8b 00             	mov    (%rax),%rax
  8004202524:	48 39 c2             	cmp    %rax,%rdx
  8004202527:	72 32                	jb     800420255b <page_init+0x14a>
  8004202529:	48 8b 45 c0          	mov    -0x40(%rbp),%rax
  800420252d:	48 89 c1             	mov    %rax,%rcx
  8004202530:	48 ba b0 e6 20 04 80 	movabs $0x800420e6b0,%rdx
  8004202537:	00 00 00 
  800420253a:	be 6f 01 00 00       	mov    $0x16f,%esi
  800420253f:	48 bf 3e e7 20 04 80 	movabs $0x800420e73e,%rdi
  8004202546:	00 00 00 
  8004202549:	b8 00 00 00 00       	mov    $0x0,%eax
  800420254e:	49 b8 14 01 20 04 80 	movabs $0x8004200114,%r8
  8004202555:	00 00 00 
  8004202558:	41 ff d0             	callq  *%r8
  800420255b:	48 ba 00 00 00 04 80 	movabs $0x8004000000,%rdx
  8004202562:	00 00 00 
  8004202565:	48 8b 45 c0          	mov    -0x40(%rbp),%rax
  8004202569:	48 01 d0             	add    %rdx,%rax
  800420256c:	48 3b 45 c8          	cmp    -0x38(%rbp),%rax
  8004202570:	0f 87 81 00 00 00    	ja     80042025f7 <page_init+0x1e6>
  8004202576:	48 b8 00 20 10 00 00 	movabs $0x102000,%rax
  800420257d:	00 00 00 
  8004202580:	48 05 00 50 00 00    	add    $0x5000,%rax
  8004202586:	48 89 45 b0          	mov    %rax,-0x50(%rbp)
  800420258a:	48 8b 45 b0          	mov    -0x50(%rbp),%rax
  800420258e:	48 c1 e8 0c          	shr    $0xc,%rax
  8004202592:	89 45 ac             	mov    %eax,-0x54(%rbp)
  8004202595:	8b 55 ac             	mov    -0x54(%rbp),%edx
  8004202598:	48 b8 88 2d 22 04 80 	movabs $0x8004222d88,%rax
  800420259f:	00 00 00 
  80042025a2:	48 8b 00             	mov    (%rax),%rax
  80042025a5:	48 39 c2             	cmp    %rax,%rdx
  80042025a8:	72 32                	jb     80042025dc <page_init+0x1cb>
  80042025aa:	48 8b 45 b0          	mov    -0x50(%rbp),%rax
  80042025ae:	48 89 c1             	mov    %rax,%rcx
  80042025b1:	48 ba b0 e6 20 04 80 	movabs $0x800420e6b0,%rdx
  80042025b8:	00 00 00 
  80042025bb:	be 6f 01 00 00       	mov    $0x16f,%esi
  80042025c0:	48 bf 3e e7 20 04 80 	movabs $0x800420e73e,%rdi
  80042025c7:	00 00 00 
  80042025ca:	b8 00 00 00 00       	mov    $0x0,%eax
  80042025cf:	49 b8 14 01 20 04 80 	movabs $0x8004200114,%r8
  80042025d6:	00 00 00 
  80042025d9:	41 ff d0             	callq  *%r8
  80042025dc:	48 ba 00 00 00 04 80 	movabs $0x8004000000,%rdx
  80042025e3:	00 00 00 
  80042025e6:	48 8b 45 b0          	mov    -0x50(%rbp),%rax
  80042025ea:	48 01 d0             	add    %rdx,%rax
  80042025ed:	48 3b 45 c8          	cmp    -0x38(%rbp),%rax
  80042025f1:	76 04                	jbe    80042025f7 <page_init+0x1e6>
            used = true;
  80042025f3:	c6 45 ef 01          	movb   $0x1,-0x11(%rbp)

        if (used) {
  80042025f7:	80 7d ef 00          	cmpb   $0x0,-0x11(%rbp)
  80042025fb:	74 42                	je     800420263f <page_init+0x22e>
            pages[i].pp_ref = 1;
  80042025fd:	48 b8 90 2d 22 04 80 	movabs $0x8004222d90,%rax
  8004202604:	00 00 00 
  8004202607:	48 8b 00             	mov    (%rax),%rax
  800420260a:	48 8b 55 f8          	mov    -0x8(%rbp),%rdx
  800420260e:	48 c1 e2 04          	shl    $0x4,%rdx
  8004202612:	48 01 d0             	add    %rdx,%rax
  8004202615:	66 c7 40 08 01 00    	movw   $0x1,0x8(%rax)
            pages[i].pp_link = NULL;
  800420261b:	48 b8 90 2d 22 04 80 	movabs $0x8004222d90,%rax
  8004202622:	00 00 00 
  8004202625:	48 8b 00             	mov    (%rax),%rax
  8004202628:	48 8b 55 f8          	mov    -0x8(%rbp),%rdx
  800420262c:	48 c1 e2 04          	shl    $0x4,%rdx
  8004202630:	48 01 d0             	add    %rdx,%rax
  8004202633:	48 c7 00 00 00 00 00 	movq   $0x0,(%rax)
            continue;
  800420263a:	e9 87 00 00 00       	jmpq   80042026c6 <page_init+0x2b5>
        }

        pages[i].pp_ref = 0;
  800420263f:	48 b8 90 2d 22 04 80 	movabs $0x8004222d90,%rax
  8004202646:	00 00 00 
  8004202649:	48 8b 00             	mov    (%rax),%rax
  800420264c:	48 8b 55 f8          	mov    -0x8(%rbp),%rdx
  8004202650:	48 c1 e2 04          	shl    $0x4,%rdx
  8004202654:	48 01 d0             	add    %rdx,%rax
  8004202657:	66 c7 40 08 00 00    	movw   $0x0,0x8(%rax)
        if(last)
  800420265d:	48 83 7d f0 00       	cmpq   $0x0,-0x10(%rbp)
  8004202662:	74 21                	je     8004202685 <page_init+0x274>
            last->pp_link = &pages[i];
  8004202664:	48 b8 90 2d 22 04 80 	movabs $0x8004222d90,%rax
  800420266b:	00 00 00 
  800420266e:	48 8b 00             	mov    (%rax),%rax
  8004202671:	48 8b 55 f8          	mov    -0x8(%rbp),%rdx
  8004202675:	48 c1 e2 04          	shl    $0x4,%rdx
  8004202679:	48 01 c2             	add    %rax,%rdx
  800420267c:	48 8b 45 f0          	mov    -0x10(%rbp),%rax
  8004202680:	48 89 10             	mov    %rdx,(%rax)
  8004202683:	eb 25                	jmp    80042026aa <page_init+0x299>
        else
            page_free_list = &pages[i];
  8004202685:	48 b8 90 2d 22 04 80 	movabs $0x8004222d90,%rax
  800420268c:	00 00 00 
  800420268f:	48 8b 00             	mov    (%rax),%rax
  8004202692:	48 8b 55 f8          	mov    -0x8(%rbp),%rdx
  8004202696:	48 c1 e2 04          	shl    $0x4,%rdx
  800420269a:	48 01 c2             	add    %rax,%rdx
  800420269d:	48 b8 d8 28 22 04 80 	movabs $0x80042228d8,%rax
  80042026a4:	00 00 00 
  80042026a7:	48 89 10             	mov    %rdx,(%rax)
        last = &pages[i];
  80042026aa:	48 b8 90 2d 22 04 80 	movabs $0x8004222d90,%rax
  80042026b1:	00 00 00 
  80042026b4:	48 8b 00             	mov    (%rax),%rax
  80042026b7:	48 8b 55 f8          	mov    -0x8(%rbp),%rdx
  80042026bb:	48 c1 e2 04          	shl    $0x4,%rdx
  80042026bf:	48 01 d0             	add    %rdx,%rax
  80042026c2:	48 89 45 f0          	mov    %rax,-0x10(%rbp)
    uint64_t free_page = PADDR(boot_alloc(0)) / PGSIZE;

    pages[0].pp_ref = 1;
    pages[0].pp_link = NULL;

    for (i = 1; i < npages; i++) {
  80042026c6:	48 83 45 f8 01       	addq   $0x1,-0x8(%rbp)
  80042026cb:	48 b8 88 2d 22 04 80 	movabs $0x8004222d88,%rax
  80042026d2:	00 00 00 
  80042026d5:	48 8b 00             	mov    (%rax),%rax
  80042026d8:	48 39 45 f8          	cmp    %rax,-0x8(%rbp)
  80042026dc:	0f 82 eb fd ff ff    	jb     80042024cd <page_init+0xbc>
            last->pp_link = &pages[i];
        else
            page_free_list = &pages[i];
        last = &pages[i];
    }
}
  80042026e2:	c9                   	leaveq 
  80042026e3:	c3                   	retq   

00000080042026e4 <page_alloc>:
// Returns NULL if out of free memory.
//
// Hint: use page2kva and memset
struct PageInfo *
page_alloc(int alloc_flags)
{
  80042026e4:	55                   	push   %rbp
  80042026e5:	48 89 e5             	mov    %rsp,%rbp
  80042026e8:	48 83 ec 20          	sub    $0x20,%rsp
  80042026ec:	89 7d ec             	mov    %edi,-0x14(%rbp)
    if (!page_free_list)
  80042026ef:	48 b8 d8 28 22 04 80 	movabs $0x80042228d8,%rax
  80042026f6:	00 00 00 
  80042026f9:	48 8b 00             	mov    (%rax),%rax
  80042026fc:	48 85 c0             	test   %rax,%rax
  80042026ff:	75 07                	jne    8004202708 <page_alloc+0x24>
        return NULL;
  8004202701:	b8 00 00 00 00       	mov    $0x0,%eax
  8004202706:	eb 6a                	jmp    8004202772 <page_alloc+0x8e>

    struct PageInfo *page = page_free_list;
  8004202708:	48 b8 d8 28 22 04 80 	movabs $0x80042228d8,%rax
  800420270f:	00 00 00 
  8004202712:	48 8b 00             	mov    (%rax),%rax
  8004202715:	48 89 45 f8          	mov    %rax,-0x8(%rbp)
    page_free_list = page->pp_link;
  8004202719:	48 8b 45 f8          	mov    -0x8(%rbp),%rax
  800420271d:	48 8b 10             	mov    (%rax),%rdx
  8004202720:	48 b8 d8 28 22 04 80 	movabs $0x80042228d8,%rax
  8004202727:	00 00 00 
  800420272a:	48 89 10             	mov    %rdx,(%rax)

    if (alloc_flags & ALLOC_ZERO)
  800420272d:	8b 45 ec             	mov    -0x14(%rbp),%eax
  8004202730:	83 e0 01             	and    $0x1,%eax
  8004202733:	85 c0                	test   %eax,%eax
  8004202735:	74 2c                	je     8004202763 <page_alloc+0x7f>
        memset(page2kva(page), '\0', PGSIZE);
  8004202737:	48 8b 45 f8          	mov    -0x8(%rbp),%rax
  800420273b:	48 89 c7             	mov    %rax,%rdi
  800420273e:	48 b8 35 15 20 04 80 	movabs $0x8004201535,%rax
  8004202745:	00 00 00 
  8004202748:	ff d0                	callq  *%rax
  800420274a:	ba 00 10 00 00       	mov    $0x1000,%edx
  800420274f:	be 00 00 00 00       	mov    $0x0,%esi
  8004202754:	48 89 c7             	mov    %rax,%rdi
  8004202757:	48 b8 a0 7f 20 04 80 	movabs $0x8004207fa0,%rax
  800420275e:	00 00 00 
  8004202761:	ff d0                	callq  *%rax

    page->pp_link = NULL;
  8004202763:	48 8b 45 f8          	mov    -0x8(%rbp),%rax
  8004202767:	48 c7 00 00 00 00 00 	movq   $0x0,(%rax)

    return page;
  800420276e:	48 8b 45 f8          	mov    -0x8(%rbp),%rax
}
  8004202772:	c9                   	leaveq 
  8004202773:	c3                   	retq   

0000008004202774 <page_initpp>:
// The result has null links and 0 refcount.
// Note that the corresponding physical page is NOT initialized!
//
static void
page_initpp(struct PageInfo *pp)
{
  8004202774:	55                   	push   %rbp
  8004202775:	48 89 e5             	mov    %rsp,%rbp
  8004202778:	48 83 ec 10          	sub    $0x10,%rsp
  800420277c:	48 89 7d f8          	mov    %rdi,-0x8(%rbp)
    memset(pp, 0, sizeof(*pp));
  8004202780:	48 8b 45 f8          	mov    -0x8(%rbp),%rax
  8004202784:	ba 10 00 00 00       	mov    $0x10,%edx
  8004202789:	be 00 00 00 00       	mov    $0x0,%esi
  800420278e:	48 89 c7             	mov    %rax,%rdi
  8004202791:	48 b8 a0 7f 20 04 80 	movabs $0x8004207fa0,%rax
  8004202798:	00 00 00 
  800420279b:	ff d0                	callq  *%rax
}
  800420279d:	c9                   	leaveq 
  800420279e:	c3                   	retq   

000000800420279f <page_free>:
// Return a page to the free list.
// (This function should only be called when pp->pp_ref reaches 0.)
//
void
page_free(struct PageInfo *pp)
{
  800420279f:	55                   	push   %rbp
  80042027a0:	48 89 e5             	mov    %rsp,%rbp
  80042027a3:	48 83 ec 10          	sub    $0x10,%rsp
  80042027a7:	48 89 7d f8          	mov    %rdi,-0x8(%rbp)
    if (pp->pp_ref != 0 || pp->pp_link)
  80042027ab:	48 8b 45 f8          	mov    -0x8(%rbp),%rax
  80042027af:	0f b7 40 08          	movzwl 0x8(%rax),%eax
  80042027b3:	66 85 c0             	test   %ax,%ax
  80042027b6:	75 0c                	jne    80042027c4 <page_free+0x25>
  80042027b8:	48 8b 45 f8          	mov    -0x8(%rbp),%rax
  80042027bc:	48 8b 00             	mov    (%rax),%rax
  80042027bf:	48 85 c0             	test   %rax,%rax
  80042027c2:	74 2a                	je     80042027ee <page_free+0x4f>
        panic("'the page could not be freed");
  80042027c4:	48 ba 84 e8 20 04 80 	movabs $0x800420e884,%rdx
  80042027cb:	00 00 00 
  80042027ce:	be b0 01 00 00       	mov    $0x1b0,%esi
  80042027d3:	48 bf 3e e7 20 04 80 	movabs $0x800420e73e,%rdi
  80042027da:	00 00 00 
  80042027dd:	b8 00 00 00 00       	mov    $0x0,%eax
  80042027e2:	48 b9 14 01 20 04 80 	movabs $0x8004200114,%rcx
  80042027e9:	00 00 00 
  80042027ec:	ff d1                	callq  *%rcx

    pp->pp_link = page_free_list;
  80042027ee:	48 b8 d8 28 22 04 80 	movabs $0x80042228d8,%rax
  80042027f5:	00 00 00 
  80042027f8:	48 8b 10             	mov    (%rax),%rdx
  80042027fb:	48 8b 45 f8          	mov    -0x8(%rbp),%rax
  80042027ff:	48 89 10             	mov    %rdx,(%rax)
    page_free_list = pp;
  8004202802:	48 b8 d8 28 22 04 80 	movabs $0x80042228d8,%rax
  8004202809:	00 00 00 
  800420280c:	48 8b 55 f8          	mov    -0x8(%rbp),%rdx
  8004202810:	48 89 10             	mov    %rdx,(%rax)
}
  8004202813:	c9                   	leaveq 
  8004202814:	c3                   	retq   

0000008004202815 <page_decref>:
// Decrement the reference count on a page,
// freeing it if there are no more refs.
//
void
page_decref(struct PageInfo* pp)
{
  8004202815:	55                   	push   %rbp
  8004202816:	48 89 e5             	mov    %rsp,%rbp
  8004202819:	48 83 ec 10          	sub    $0x10,%rsp
  800420281d:	48 89 7d f8          	mov    %rdi,-0x8(%rbp)
    if (--pp->pp_ref == 0)
  8004202821:	48 8b 45 f8          	mov    -0x8(%rbp),%rax
  8004202825:	0f b7 40 08          	movzwl 0x8(%rax),%eax
  8004202829:	8d 50 ff             	lea    -0x1(%rax),%edx
  800420282c:	48 8b 45 f8          	mov    -0x8(%rbp),%rax
  8004202830:	66 89 50 08          	mov    %dx,0x8(%rax)
  8004202834:	48 8b 45 f8          	mov    -0x8(%rbp),%rax
  8004202838:	0f b7 40 08          	movzwl 0x8(%rax),%eax
  800420283c:	66 85 c0             	test   %ax,%ax
  800420283f:	75 13                	jne    8004202854 <page_decref+0x3f>
        page_free(pp);
  8004202841:	48 8b 45 f8          	mov    -0x8(%rbp),%rax
  8004202845:	48 89 c7             	mov    %rax,%rdi
  8004202848:	48 b8 9f 27 20 04 80 	movabs $0x800420279f,%rax
  800420284f:	00 00 00 
  8004202852:	ff d0                	callq  *%rax
}
  8004202854:	c9                   	leaveq 
  8004202855:	c3                   	retq   

0000008004202856 <pml4e_walk>:
// table, page directory,page directory pointer and pml4 entries.
//

pte_t *
pml4e_walk(pml4e_t *pml4e, const void *va, int create)
{
  8004202856:	55                   	push   %rbp
  8004202857:	48 89 e5             	mov    %rsp,%rbp
  800420285a:	48 83 ec 50          	sub    $0x50,%rsp
  800420285e:	48 89 7d c8          	mov    %rdi,-0x38(%rbp)
  8004202862:	48 89 75 c0          	mov    %rsi,-0x40(%rbp)
  8004202866:	89 55 bc             	mov    %edx,-0x44(%rbp)
    pdpe_t *pdpe;
    struct PageInfo *page = NULL;
  8004202869:	48 c7 45 f8 00 00 00 	movq   $0x0,-0x8(%rbp)
  8004202870:	00 
    pml4e_t *current_pml4e = &pml4e[PML4(va)];
  8004202871:	48 8b 45 c0          	mov    -0x40(%rbp),%rax
  8004202875:	48 c1 e8 27          	shr    $0x27,%rax
  8004202879:	25 ff 01 00 00       	and    $0x1ff,%eax
  800420287e:	48 8d 14 c5 00 00 00 	lea    0x0(,%rax,8),%rdx
  8004202885:	00 
  8004202886:	48 8b 45 c8          	mov    -0x38(%rbp),%rax
  800420288a:	48 01 d0             	add    %rdx,%rax
  800420288d:	48 89 45 f0          	mov    %rax,-0x10(%rbp)

    if(create && !*current_pml4e) {
  8004202891:	83 7d bc 00          	cmpl   $0x0,-0x44(%rbp)
  8004202895:	74 6c                	je     8004202903 <pml4e_walk+0xad>
  8004202897:	48 8b 45 f0          	mov    -0x10(%rbp),%rax
  800420289b:	48 8b 00             	mov    (%rax),%rax
  800420289e:	48 85 c0             	test   %rax,%rax
  80042028a1:	75 60                	jne    8004202903 <pml4e_walk+0xad>
        page = page_alloc(ALLOC_ZERO);
  80042028a3:	bf 01 00 00 00       	mov    $0x1,%edi
  80042028a8:	48 b8 e4 26 20 04 80 	movabs $0x80042026e4,%rax
  80042028af:	00 00 00 
  80042028b2:	ff d0                	callq  *%rax
  80042028b4:	48 89 45 f8          	mov    %rax,-0x8(%rbp)
        if (!page)
  80042028b8:	48 83 7d f8 00       	cmpq   $0x0,-0x8(%rbp)
  80042028bd:	75 0a                	jne    80042028c9 <pml4e_walk+0x73>
            return NULL;
  80042028bf:	b8 00 00 00 00       	mov    $0x0,%eax
  80042028c4:	e9 03 01 00 00       	jmpq   80042029cc <pml4e_walk+0x176>

        page->pp_ref++;
  80042028c9:	48 8b 45 f8          	mov    -0x8(%rbp),%rax
  80042028cd:	0f b7 40 08          	movzwl 0x8(%rax),%eax
  80042028d1:	8d 50 01             	lea    0x1(%rax),%edx
  80042028d4:	48 8b 45 f8          	mov    -0x8(%rbp),%rax
  80042028d8:	66 89 50 08          	mov    %dx,0x8(%rax)
        *current_pml4e = (pml4e_t) (page2pa(page) & ~0xFFF) | PTE_P | PTE_W | PTE_U;
  80042028dc:	48 8b 45 f8          	mov    -0x8(%rbp),%rax
  80042028e0:	48 89 c7             	mov    %rax,%rdi
  80042028e3:	48 b8 9f 14 20 04 80 	movabs $0x800420149f,%rax
  80042028ea:	00 00 00 
  80042028ed:	ff d0                	callq  *%rax
  80042028ef:	48 25 00 f0 ff ff    	and    $0xfffffffffffff000,%rax
  80042028f5:	48 83 c8 07          	or     $0x7,%rax
  80042028f9:	48 89 c2             	mov    %rax,%rdx
  80042028fc:	48 8b 45 f0          	mov    -0x10(%rbp),%rax
  8004202900:	48 89 10             	mov    %rdx,(%rax)
    }

    pdpe = (pdpe_t *) KADDR(PTE_ADDR(*current_pml4e));
  8004202903:	48 8b 45 f0          	mov    -0x10(%rbp),%rax
  8004202907:	48 8b 00             	mov    (%rax),%rax
  800420290a:	48 25 00 f0 ff ff    	and    $0xfffffffffffff000,%rax
  8004202910:	48 89 45 e8          	mov    %rax,-0x18(%rbp)
  8004202914:	48 8b 45 e8          	mov    -0x18(%rbp),%rax
  8004202918:	48 c1 e8 0c          	shr    $0xc,%rax
  800420291c:	89 45 e4             	mov    %eax,-0x1c(%rbp)
  800420291f:	8b 55 e4             	mov    -0x1c(%rbp),%edx
  8004202922:	48 b8 88 2d 22 04 80 	movabs $0x8004222d88,%rax
  8004202929:	00 00 00 
  800420292c:	48 8b 00             	mov    (%rax),%rax
  800420292f:	48 39 c2             	cmp    %rax,%rdx
  8004202932:	72 32                	jb     8004202966 <pml4e_walk+0x110>
  8004202934:	48 8b 45 e8          	mov    -0x18(%rbp),%rax
  8004202938:	48 89 c1             	mov    %rax,%rcx
  800420293b:	48 ba b0 e6 20 04 80 	movabs $0x800420e6b0,%rdx
  8004202942:	00 00 00 
  8004202945:	be ea 01 00 00       	mov    $0x1ea,%esi
  800420294a:	48 bf 3e e7 20 04 80 	movabs $0x800420e73e,%rdi
  8004202951:	00 00 00 
  8004202954:	b8 00 00 00 00       	mov    $0x0,%eax
  8004202959:	49 b8 14 01 20 04 80 	movabs $0x8004200114,%r8
  8004202960:	00 00 00 
  8004202963:	41 ff d0             	callq  *%r8
  8004202966:	48 ba 00 00 00 04 80 	movabs $0x8004000000,%rdx
  800420296d:	00 00 00 
  8004202970:	48 8b 45 e8          	mov    -0x18(%rbp),%rax
  8004202974:	48 01 d0             	add    %rdx,%rax
  8004202977:	48 89 45 d8          	mov    %rax,-0x28(%rbp)

    pte_t *pte = pdpe_walk(pdpe, va, create);
  800420297b:	8b 55 bc             	mov    -0x44(%rbp),%edx
  800420297e:	48 8b 4d c0          	mov    -0x40(%rbp),%rcx
  8004202982:	48 8b 45 d8          	mov    -0x28(%rbp),%rax
  8004202986:	48 89 ce             	mov    %rcx,%rsi
  8004202989:	48 89 c7             	mov    %rax,%rdi
  800420298c:	48 b8 ce 29 20 04 80 	movabs $0x80042029ce,%rax
  8004202993:	00 00 00 
  8004202996:	ff d0                	callq  *%rax
  8004202998:	48 89 45 d0          	mov    %rax,-0x30(%rbp)

    if (!pte && page) {
  800420299c:	48 83 7d d0 00       	cmpq   $0x0,-0x30(%rbp)
  80042029a1:	75 25                	jne    80042029c8 <pml4e_walk+0x172>
  80042029a3:	48 83 7d f8 00       	cmpq   $0x0,-0x8(%rbp)
  80042029a8:	74 1e                	je     80042029c8 <pml4e_walk+0x172>
        page_decref(page);
  80042029aa:	48 8b 45 f8          	mov    -0x8(%rbp),%rax
  80042029ae:	48 89 c7             	mov    %rax,%rdi
  80042029b1:	48 b8 15 28 20 04 80 	movabs $0x8004202815,%rax
  80042029b8:	00 00 00 
  80042029bb:	ff d0                	callq  *%rax
        *current_pml4e = 0x0;
  80042029bd:	48 8b 45 f0          	mov    -0x10(%rbp),%rax
  80042029c1:	48 c7 00 00 00 00 00 	movq   $0x0,(%rax)
    }

    return pte;
  80042029c8:	48 8b 45 d0          	mov    -0x30(%rbp),%rax
}
  80042029cc:	c9                   	leaveq 
  80042029cd:	c3                   	retq   

00000080042029ce <pdpe_walk>:
// Given a pdpe i.e page directory pointer pdpe_walk returns the pointer to page table entry
// The programming logic in this function is similar to pml4e_walk.
// It calls the pgdir_walk which returns the page_table entry pointer.
// Hints are the same as in pml4e_walk
pte_t *
pdpe_walk(pdpe_t *pdpe,const void *va,int create){
  80042029ce:	55                   	push   %rbp
  80042029cf:	48 89 e5             	mov    %rsp,%rbp
  80042029d2:	48 83 ec 50          	sub    $0x50,%rsp
  80042029d6:	48 89 7d c8          	mov    %rdi,-0x38(%rbp)
  80042029da:	48 89 75 c0          	mov    %rsi,-0x40(%rbp)
  80042029de:	89 55 bc             	mov    %edx,-0x44(%rbp)
    pde_t *pde;
    struct PageInfo *page = NULL;
  80042029e1:	48 c7 45 f8 00 00 00 	movq   $0x0,-0x8(%rbp)
  80042029e8:	00 
    pdpe_t *current_pdpe = &pdpe[PDPE(va)];
  80042029e9:	48 8b 45 c0          	mov    -0x40(%rbp),%rax
  80042029ed:	48 c1 e8 1e          	shr    $0x1e,%rax
  80042029f1:	25 ff 01 00 00       	and    $0x1ff,%eax
  80042029f6:	48 8d 14 c5 00 00 00 	lea    0x0(,%rax,8),%rdx
  80042029fd:	00 
  80042029fe:	48 8b 45 c8          	mov    -0x38(%rbp),%rax
  8004202a02:	48 01 d0             	add    %rdx,%rax
  8004202a05:	48 89 45 f0          	mov    %rax,-0x10(%rbp)

    if(create && !*current_pdpe) {
  8004202a09:	83 7d bc 00          	cmpl   $0x0,-0x44(%rbp)
  8004202a0d:	74 6c                	je     8004202a7b <pdpe_walk+0xad>
  8004202a0f:	48 8b 45 f0          	mov    -0x10(%rbp),%rax
  8004202a13:	48 8b 00             	mov    (%rax),%rax
  8004202a16:	48 85 c0             	test   %rax,%rax
  8004202a19:	75 60                	jne    8004202a7b <pdpe_walk+0xad>
        page = page_alloc(ALLOC_ZERO);
  8004202a1b:	bf 01 00 00 00       	mov    $0x1,%edi
  8004202a20:	48 b8 e4 26 20 04 80 	movabs $0x80042026e4,%rax
  8004202a27:	00 00 00 
  8004202a2a:	ff d0                	callq  *%rax
  8004202a2c:	48 89 45 f8          	mov    %rax,-0x8(%rbp)
        if (!page)
  8004202a30:	48 83 7d f8 00       	cmpq   $0x0,-0x8(%rbp)
  8004202a35:	75 0a                	jne    8004202a41 <pdpe_walk+0x73>
            return NULL;
  8004202a37:	b8 00 00 00 00       	mov    $0x0,%eax
  8004202a3c:	e9 03 01 00 00       	jmpq   8004202b44 <pdpe_walk+0x176>
        page->pp_ref++;
  8004202a41:	48 8b 45 f8          	mov    -0x8(%rbp),%rax
  8004202a45:	0f b7 40 08          	movzwl 0x8(%rax),%eax
  8004202a49:	8d 50 01             	lea    0x1(%rax),%edx
  8004202a4c:	48 8b 45 f8          	mov    -0x8(%rbp),%rax
  8004202a50:	66 89 50 08          	mov    %dx,0x8(%rax)
        *current_pdpe = (pdpe_t) (page2pa(page) & ~0xFFF) | PTE_P | PTE_W;
  8004202a54:	48 8b 45 f8          	mov    -0x8(%rbp),%rax
  8004202a58:	48 89 c7             	mov    %rax,%rdi
  8004202a5b:	48 b8 9f 14 20 04 80 	movabs $0x800420149f,%rax
  8004202a62:	00 00 00 
  8004202a65:	ff d0                	callq  *%rax
  8004202a67:	48 25 00 f0 ff ff    	and    $0xfffffffffffff000,%rax
  8004202a6d:	48 83 c8 03          	or     $0x3,%rax
  8004202a71:	48 89 c2             	mov    %rax,%rdx
  8004202a74:	48 8b 45 f0          	mov    -0x10(%rbp),%rax
  8004202a78:	48 89 10             	mov    %rdx,(%rax)
    }

    pde = (pde_t *) KADDR(PTE_ADDR(*current_pdpe));
  8004202a7b:	48 8b 45 f0          	mov    -0x10(%rbp),%rax
  8004202a7f:	48 8b 00             	mov    (%rax),%rax
  8004202a82:	48 25 00 f0 ff ff    	and    $0xfffffffffffff000,%rax
  8004202a88:	48 89 45 e8          	mov    %rax,-0x18(%rbp)
  8004202a8c:	48 8b 45 e8          	mov    -0x18(%rbp),%rax
  8004202a90:	48 c1 e8 0c          	shr    $0xc,%rax
  8004202a94:	89 45 e4             	mov    %eax,-0x1c(%rbp)
  8004202a97:	8b 55 e4             	mov    -0x1c(%rbp),%edx
  8004202a9a:	48 b8 88 2d 22 04 80 	movabs $0x8004222d88,%rax
  8004202aa1:	00 00 00 
  8004202aa4:	48 8b 00             	mov    (%rax),%rax
  8004202aa7:	48 39 c2             	cmp    %rax,%rdx
  8004202aaa:	72 32                	jb     8004202ade <pdpe_walk+0x110>
  8004202aac:	48 8b 45 e8          	mov    -0x18(%rbp),%rax
  8004202ab0:	48 89 c1             	mov    %rax,%rcx
  8004202ab3:	48 ba b0 e6 20 04 80 	movabs $0x800420e6b0,%rdx
  8004202aba:	00 00 00 
  8004202abd:	be 08 02 00 00       	mov    $0x208,%esi
  8004202ac2:	48 bf 3e e7 20 04 80 	movabs $0x800420e73e,%rdi
  8004202ac9:	00 00 00 
  8004202acc:	b8 00 00 00 00       	mov    $0x0,%eax
  8004202ad1:	49 b8 14 01 20 04 80 	movabs $0x8004200114,%r8
  8004202ad8:	00 00 00 
  8004202adb:	41 ff d0             	callq  *%r8
  8004202ade:	48 ba 00 00 00 04 80 	movabs $0x8004000000,%rdx
  8004202ae5:	00 00 00 
  8004202ae8:	48 8b 45 e8          	mov    -0x18(%rbp),%rax
  8004202aec:	48 01 d0             	add    %rdx,%rax
  8004202aef:	48 89 45 d8          	mov    %rax,-0x28(%rbp)

    pte_t *pte = pgdir_walk(pde, va, create);
  8004202af3:	8b 55 bc             	mov    -0x44(%rbp),%edx
  8004202af6:	48 8b 4d c0          	mov    -0x40(%rbp),%rcx
  8004202afa:	48 8b 45 d8          	mov    -0x28(%rbp),%rax
  8004202afe:	48 89 ce             	mov    %rcx,%rsi
  8004202b01:	48 89 c7             	mov    %rax,%rdi
  8004202b04:	48 b8 46 2b 20 04 80 	movabs $0x8004202b46,%rax
  8004202b0b:	00 00 00 
  8004202b0e:	ff d0                	callq  *%rax
  8004202b10:	48 89 45 d0          	mov    %rax,-0x30(%rbp)

    if (!pte && page) {
  8004202b14:	48 83 7d d0 00       	cmpq   $0x0,-0x30(%rbp)
  8004202b19:	75 25                	jne    8004202b40 <pdpe_walk+0x172>
  8004202b1b:	48 83 7d f8 00       	cmpq   $0x0,-0x8(%rbp)
  8004202b20:	74 1e                	je     8004202b40 <pdpe_walk+0x172>
        page_decref(page);
  8004202b22:	48 8b 45 f8          	mov    -0x8(%rbp),%rax
  8004202b26:	48 89 c7             	mov    %rax,%rdi
  8004202b29:	48 b8 15 28 20 04 80 	movabs $0x8004202815,%rax
  8004202b30:	00 00 00 
  8004202b33:	ff d0                	callq  *%rax
        *current_pdpe = 0x0;
  8004202b35:	48 8b 45 f0          	mov    -0x10(%rbp),%rax
  8004202b39:	48 c7 00 00 00 00 00 	movq   $0x0,(%rax)
    }

    return pte;
  8004202b40:	48 8b 45 d0          	mov    -0x30(%rbp),%rax
}
  8004202b44:	c9                   	leaveq 
  8004202b45:	c3                   	retq   

0000008004202b46 <pgdir_walk>:
// The logic here is slightly different, in that it needs to look
// not just at the page directory, but also get the last-level page table entry.

pte_t *
pgdir_walk(pde_t *pgdir, const void *va, int create)
{
  8004202b46:	55                   	push   %rbp
  8004202b47:	48 89 e5             	mov    %rsp,%rbp
  8004202b4a:	48 83 ec 50          	sub    $0x50,%rsp
  8004202b4e:	48 89 7d c8          	mov    %rdi,-0x38(%rbp)
  8004202b52:	48 89 75 c0          	mov    %rsi,-0x40(%rbp)
  8004202b56:	89 55 bc             	mov    %edx,-0x44(%rbp)
    pde_t *current_pde = &pgdir[PDX(va)];
  8004202b59:	48 8b 45 c0          	mov    -0x40(%rbp),%rax
  8004202b5d:	48 c1 e8 15          	shr    $0x15,%rax
  8004202b61:	25 ff 01 00 00       	and    $0x1ff,%eax
  8004202b66:	48 8d 14 c5 00 00 00 	lea    0x0(,%rax,8),%rdx
  8004202b6d:	00 
  8004202b6e:	48 8b 45 c8          	mov    -0x38(%rbp),%rax
  8004202b72:	48 01 d0             	add    %rdx,%rax
  8004202b75:	48 89 45 f8          	mov    %rax,-0x8(%rbp)
    pte_t *pte;

    if(create && !*current_pde) {
  8004202b79:	83 7d bc 00          	cmpl   $0x0,-0x44(%rbp)
  8004202b7d:	74 6c                	je     8004202beb <pgdir_walk+0xa5>
  8004202b7f:	48 8b 45 f8          	mov    -0x8(%rbp),%rax
  8004202b83:	48 8b 00             	mov    (%rax),%rax
  8004202b86:	48 85 c0             	test   %rax,%rax
  8004202b89:	75 60                	jne    8004202beb <pgdir_walk+0xa5>
        struct PageInfo *page = page_alloc(ALLOC_ZERO);
  8004202b8b:	bf 01 00 00 00       	mov    $0x1,%edi
  8004202b90:	48 b8 e4 26 20 04 80 	movabs $0x80042026e4,%rax
  8004202b97:	00 00 00 
  8004202b9a:	ff d0                	callq  *%rax
  8004202b9c:	48 89 45 f0          	mov    %rax,-0x10(%rbp)
        if (!page)
  8004202ba0:	48 83 7d f0 00       	cmpq   $0x0,-0x10(%rbp)
  8004202ba5:	75 0a                	jne    8004202bb1 <pgdir_walk+0x6b>
            return NULL;
  8004202ba7:	b8 00 00 00 00       	mov    $0x0,%eax
  8004202bac:	e9 dc 00 00 00       	jmpq   8004202c8d <pgdir_walk+0x147>

        page->pp_ref++;
  8004202bb1:	48 8b 45 f0          	mov    -0x10(%rbp),%rax
  8004202bb5:	0f b7 40 08          	movzwl 0x8(%rax),%eax
  8004202bb9:	8d 50 01             	lea    0x1(%rax),%edx
  8004202bbc:	48 8b 45 f0          	mov    -0x10(%rbp),%rax
  8004202bc0:	66 89 50 08          	mov    %dx,0x8(%rax)
        *current_pde = (pde_t) (page2pa(page) & ~0xFFF) | PTE_P | PTE_W;
  8004202bc4:	48 8b 45 f0          	mov    -0x10(%rbp),%rax
  8004202bc8:	48 89 c7             	mov    %rax,%rdi
  8004202bcb:	48 b8 9f 14 20 04 80 	movabs $0x800420149f,%rax
  8004202bd2:	00 00 00 
  8004202bd5:	ff d0                	callq  *%rax
  8004202bd7:	48 25 00 f0 ff ff    	and    $0xfffffffffffff000,%rax
  8004202bdd:	48 83 c8 03          	or     $0x3,%rax
  8004202be1:	48 89 c2             	mov    %rax,%rdx
  8004202be4:	48 8b 45 f8          	mov    -0x8(%rbp),%rax
  8004202be8:	48 89 10             	mov    %rdx,(%rax)
    }

    pte = (pte_t *) KADDR(PTE_ADDR(*current_pde));
  8004202beb:	48 8b 45 f8          	mov    -0x8(%rbp),%rax
  8004202bef:	48 8b 00             	mov    (%rax),%rax
  8004202bf2:	48 25 00 f0 ff ff    	and    $0xfffffffffffff000,%rax
  8004202bf8:	48 89 45 e8          	mov    %rax,-0x18(%rbp)
  8004202bfc:	48 8b 45 e8          	mov    -0x18(%rbp),%rax
  8004202c00:	48 c1 e8 0c          	shr    $0xc,%rax
  8004202c04:	89 45 e4             	mov    %eax,-0x1c(%rbp)
  8004202c07:	8b 55 e4             	mov    -0x1c(%rbp),%edx
  8004202c0a:	48 b8 88 2d 22 04 80 	movabs $0x8004222d88,%rax
  8004202c11:	00 00 00 
  8004202c14:	48 8b 00             	mov    (%rax),%rax
  8004202c17:	48 39 c2             	cmp    %rax,%rdx
  8004202c1a:	72 32                	jb     8004202c4e <pgdir_walk+0x108>
  8004202c1c:	48 8b 45 e8          	mov    -0x18(%rbp),%rax
  8004202c20:	48 89 c1             	mov    %rax,%rcx
  8004202c23:	48 ba b0 e6 20 04 80 	movabs $0x800420e6b0,%rdx
  8004202c2a:	00 00 00 
  8004202c2d:	be 2a 02 00 00       	mov    $0x22a,%esi
  8004202c32:	48 bf 3e e7 20 04 80 	movabs $0x800420e73e,%rdi
  8004202c39:	00 00 00 
  8004202c3c:	b8 00 00 00 00       	mov    $0x0,%eax
  8004202c41:	49 b8 14 01 20 04 80 	movabs $0x8004200114,%r8
  8004202c48:	00 00 00 
  8004202c4b:	41 ff d0             	callq  *%r8
  8004202c4e:	48 ba 00 00 00 04 80 	movabs $0x8004000000,%rdx
  8004202c55:	00 00 00 
  8004202c58:	48 8b 45 e8          	mov    -0x18(%rbp),%rax
  8004202c5c:	48 01 d0             	add    %rdx,%rax
  8004202c5f:	48 89 45 d8          	mov    %rax,-0x28(%rbp)

    if(!pte)
  8004202c63:	48 83 7d d8 00       	cmpq   $0x0,-0x28(%rbp)
  8004202c68:	75 07                	jne    8004202c71 <pgdir_walk+0x12b>
        return NULL;
  8004202c6a:	b8 00 00 00 00       	mov    $0x0,%eax
  8004202c6f:	eb 1c                	jmp    8004202c8d <pgdir_walk+0x147>

    return &pte[PTX(va)];
  8004202c71:	48 8b 45 c0          	mov    -0x40(%rbp),%rax
  8004202c75:	48 c1 e8 0c          	shr    $0xc,%rax
  8004202c79:	25 ff 01 00 00       	and    $0x1ff,%eax
  8004202c7e:	48 8d 14 c5 00 00 00 	lea    0x0(,%rax,8),%rdx
  8004202c85:	00 
  8004202c86:	48 8b 45 d8          	mov    -0x28(%rbp),%rax
  8004202c8a:	48 01 d0             	add    %rdx,%rax
}
  8004202c8d:	c9                   	leaveq 
  8004202c8e:	c3                   	retq   

0000008004202c8f <boot_map_region>:
// mapped pages.
//
// Hint: the TA solution uses pml4e_walk
static void
boot_map_region(pml4e_t *pml4e, uintptr_t la, size_t size, physaddr_t pa, int perm)
{
  8004202c8f:	55                   	push   %rbp
  8004202c90:	48 89 e5             	mov    %rsp,%rbp
  8004202c93:	48 83 ec 40          	sub    $0x40,%rsp
  8004202c97:	48 89 7d e8          	mov    %rdi,-0x18(%rbp)
  8004202c9b:	48 89 75 e0          	mov    %rsi,-0x20(%rbp)
  8004202c9f:	48 89 55 d8          	mov    %rdx,-0x28(%rbp)
  8004202ca3:	48 89 4d d0          	mov    %rcx,-0x30(%rbp)
  8004202ca7:	44 89 45 cc          	mov    %r8d,-0x34(%rbp)
    pte_t *pte;
    int i = 0;
  8004202cab:	c7 45 fc 00 00 00 00 	movl   $0x0,-0x4(%rbp)
    for( i = 0; i < size; i += PGSIZE) {
  8004202cb2:	c7 45 fc 00 00 00 00 	movl   $0x0,-0x4(%rbp)
  8004202cb9:	e9 8a 00 00 00       	jmpq   8004202d48 <boot_map_region+0xb9>
        pte = pml4e_walk(pml4e, (void *)la + i, true);
  8004202cbe:	8b 45 fc             	mov    -0x4(%rbp),%eax
  8004202cc1:	48 63 d0             	movslq %eax,%rdx
  8004202cc4:	48 8b 45 e0          	mov    -0x20(%rbp),%rax
  8004202cc8:	48 01 d0             	add    %rdx,%rax
  8004202ccb:	48 89 c1             	mov    %rax,%rcx
  8004202cce:	48 8b 45 e8          	mov    -0x18(%rbp),%rax
  8004202cd2:	ba 01 00 00 00       	mov    $0x1,%edx
  8004202cd7:	48 89 ce             	mov    %rcx,%rsi
  8004202cda:	48 89 c7             	mov    %rax,%rdi
  8004202cdd:	48 b8 56 28 20 04 80 	movabs $0x8004202856,%rax
  8004202ce4:	00 00 00 
  8004202ce7:	ff d0                	callq  *%rax
  8004202ce9:	48 89 45 f0          	mov    %rax,-0x10(%rbp)
        if (!pte)
  8004202ced:	48 83 7d f0 00       	cmpq   $0x0,-0x10(%rbp)
  8004202cf2:	75 2a                	jne    8004202d1e <boot_map_region+0x8f>
            panic("failed to find the physical memory");
  8004202cf4:	48 ba a8 e8 20 04 80 	movabs $0x800420e8a8,%rdx
  8004202cfb:	00 00 00 
  8004202cfe:	be 44 02 00 00       	mov    $0x244,%esi
  8004202d03:	48 bf 3e e7 20 04 80 	movabs $0x800420e73e,%rdi
  8004202d0a:	00 00 00 
  8004202d0d:	b8 00 00 00 00       	mov    $0x0,%eax
  8004202d12:	48 b9 14 01 20 04 80 	movabs $0x8004200114,%rcx
  8004202d19:	00 00 00 
  8004202d1c:	ff d1                	callq  *%rcx
        *pte = (pa + i) | perm | PTE_P;
  8004202d1e:	8b 45 fc             	mov    -0x4(%rbp),%eax
  8004202d21:	48 63 d0             	movslq %eax,%rdx
  8004202d24:	48 8b 45 d0          	mov    -0x30(%rbp),%rax
  8004202d28:	48 01 c2             	add    %rax,%rdx
  8004202d2b:	8b 45 cc             	mov    -0x34(%rbp),%eax
  8004202d2e:	48 98                	cltq   
  8004202d30:	48 09 d0             	or     %rdx,%rax
  8004202d33:	48 83 c8 01          	or     $0x1,%rax
  8004202d37:	48 89 c2             	mov    %rax,%rdx
  8004202d3a:	48 8b 45 f0          	mov    -0x10(%rbp),%rax
  8004202d3e:	48 89 10             	mov    %rdx,(%rax)
static void
boot_map_region(pml4e_t *pml4e, uintptr_t la, size_t size, physaddr_t pa, int perm)
{
    pte_t *pte;
    int i = 0;
    for( i = 0; i < size; i += PGSIZE) {
  8004202d41:	81 45 fc 00 10 00 00 	addl   $0x1000,-0x4(%rbp)
  8004202d48:	8b 45 fc             	mov    -0x4(%rbp),%eax
  8004202d4b:	48 98                	cltq   
  8004202d4d:	48 3b 45 d8          	cmp    -0x28(%rbp),%rax
  8004202d51:	0f 82 67 ff ff ff    	jb     8004202cbe <boot_map_region+0x2f>
        pte = pml4e_walk(pml4e, (void *)la + i, true);
        if (!pte)
            panic("failed to find the physical memory");
        *pte = (pa + i) | perm | PTE_P;
    }
}
  8004202d57:	c9                   	leaveq 
  8004202d58:	c3                   	retq   

0000008004202d59 <page_insert>:
// Hint: The TA solution is implemented using pml4e_walk, page_remove,
// and page2pa.
//
int
page_insert(pml4e_t *pml4e, struct PageInfo *pp, void *va, int perm)
{
  8004202d59:	55                   	push   %rbp
  8004202d5a:	48 89 e5             	mov    %rsp,%rbp
  8004202d5d:	48 83 ec 30          	sub    $0x30,%rsp
  8004202d61:	48 89 7d e8          	mov    %rdi,-0x18(%rbp)
  8004202d65:	48 89 75 e0          	mov    %rsi,-0x20(%rbp)
  8004202d69:	48 89 55 d8          	mov    %rdx,-0x28(%rbp)
  8004202d6d:	89 4d d4             	mov    %ecx,-0x2c(%rbp)
    pte_t *pte = pml4e_walk(pml4e, va, true);
  8004202d70:	48 8b 4d d8          	mov    -0x28(%rbp),%rcx
  8004202d74:	48 8b 45 e8          	mov    -0x18(%rbp),%rax
  8004202d78:	ba 01 00 00 00       	mov    $0x1,%edx
  8004202d7d:	48 89 ce             	mov    %rcx,%rsi
  8004202d80:	48 89 c7             	mov    %rax,%rdi
  8004202d83:	48 b8 56 28 20 04 80 	movabs $0x8004202856,%rax
  8004202d8a:	00 00 00 
  8004202d8d:	ff d0                	callq  *%rax
  8004202d8f:	48 89 45 f8          	mov    %rax,-0x8(%rbp)
    if (!pte)
  8004202d93:	48 83 7d f8 00       	cmpq   $0x0,-0x8(%rbp)
  8004202d98:	75 07                	jne    8004202da1 <page_insert+0x48>
        return -E_NO_MEM;
  8004202d9a:	b8 fc ff ff ff       	mov    $0xfffffffc,%eax
  8004202d9f:	eb 73                	jmp    8004202e14 <page_insert+0xbb>
    if (*pte & PTE_P)
  8004202da1:	48 8b 45 f8          	mov    -0x8(%rbp),%rax
  8004202da5:	48 8b 00             	mov    (%rax),%rax
  8004202da8:	83 e0 01             	and    $0x1,%eax
  8004202dab:	48 85 c0             	test   %rax,%rax
  8004202dae:	74 1a                	je     8004202dca <page_insert+0x71>
        page_remove(pml4e, va);
  8004202db0:	48 8b 55 d8          	mov    -0x28(%rbp),%rdx
  8004202db4:	48 8b 45 e8          	mov    -0x18(%rbp),%rax
  8004202db8:	48 89 d6             	mov    %rdx,%rsi
  8004202dbb:	48 89 c7             	mov    %rax,%rdi
  8004202dbe:	48 b8 8d 2e 20 04 80 	movabs $0x8004202e8d,%rax
  8004202dc5:	00 00 00 
  8004202dc8:	ff d0                	callq  *%rax

    pp->pp_ref++;
  8004202dca:	48 8b 45 e0          	mov    -0x20(%rbp),%rax
  8004202dce:	0f b7 40 08          	movzwl 0x8(%rax),%eax
  8004202dd2:	8d 50 01             	lea    0x1(%rax),%edx
  8004202dd5:	48 8b 45 e0          	mov    -0x20(%rbp),%rax
  8004202dd9:	66 89 50 08          	mov    %dx,0x8(%rax)
    *pte = (page2pa(pp) & ~0xFFF) | perm | PTE_P;
  8004202ddd:	48 8b 45 e0          	mov    -0x20(%rbp),%rax
  8004202de1:	48 89 c7             	mov    %rax,%rdi
  8004202de4:	48 b8 9f 14 20 04 80 	movabs $0x800420149f,%rax
  8004202deb:	00 00 00 
  8004202dee:	ff d0                	callq  *%rax
  8004202df0:	48 25 00 f0 ff ff    	and    $0xfffffffffffff000,%rax
  8004202df6:	48 89 c2             	mov    %rax,%rdx
  8004202df9:	8b 45 d4             	mov    -0x2c(%rbp),%eax
  8004202dfc:	48 98                	cltq   
  8004202dfe:	48 09 d0             	or     %rdx,%rax
  8004202e01:	48 83 c8 01          	or     $0x1,%rax
  8004202e05:	48 89 c2             	mov    %rax,%rdx
  8004202e08:	48 8b 45 f8          	mov    -0x8(%rbp),%rax
  8004202e0c:	48 89 10             	mov    %rdx,(%rax)

    return 0;
  8004202e0f:	b8 00 00 00 00       	mov    $0x0,%eax
}
  8004202e14:	c9                   	leaveq 
  8004202e15:	c3                   	retq   

0000008004202e16 <page_lookup>:
//
// Hint: the TA solution uses pml4e_walk and pa2page.
//
struct PageInfo *
page_lookup(pml4e_t *pml4e, void *va, pte_t **pte_store)
{
  8004202e16:	55                   	push   %rbp
  8004202e17:	48 89 e5             	mov    %rsp,%rbp
  8004202e1a:	48 83 ec 30          	sub    $0x30,%rsp
  8004202e1e:	48 89 7d e8          	mov    %rdi,-0x18(%rbp)
  8004202e22:	48 89 75 e0          	mov    %rsi,-0x20(%rbp)
  8004202e26:	48 89 55 d8          	mov    %rdx,-0x28(%rbp)
    pte_t *pte = pml4e_walk(pml4e, va, true);
  8004202e2a:	48 8b 4d e0          	mov    -0x20(%rbp),%rcx
  8004202e2e:	48 8b 45 e8          	mov    -0x18(%rbp),%rax
  8004202e32:	ba 01 00 00 00       	mov    $0x1,%edx
  8004202e37:	48 89 ce             	mov    %rcx,%rsi
  8004202e3a:	48 89 c7             	mov    %rax,%rdi
  8004202e3d:	48 b8 56 28 20 04 80 	movabs $0x8004202856,%rax
  8004202e44:	00 00 00 
  8004202e47:	ff d0                	callq  *%rax
  8004202e49:	48 89 45 f8          	mov    %rax,-0x8(%rbp)
    if (!pte)
  8004202e4d:	48 83 7d f8 00       	cmpq   $0x0,-0x8(%rbp)
  8004202e52:	75 07                	jne    8004202e5b <page_lookup+0x45>
        return NULL;
  8004202e54:	b8 00 00 00 00       	mov    $0x0,%eax
  8004202e59:	eb 30                	jmp    8004202e8b <page_lookup+0x75>

    physaddr_t pa = (physaddr_t) *pte;
  8004202e5b:	48 8b 45 f8          	mov    -0x8(%rbp),%rax
  8004202e5f:	48 8b 00             	mov    (%rax),%rax
  8004202e62:	48 89 45 f0          	mov    %rax,-0x10(%rbp)

    if (pte_store)
  8004202e66:	48 83 7d d8 00       	cmpq   $0x0,-0x28(%rbp)
  8004202e6b:	74 0b                	je     8004202e78 <page_lookup+0x62>
        *pte_store = pte;
  8004202e6d:	48 8b 45 d8          	mov    -0x28(%rbp),%rax
  8004202e71:	48 8b 55 f8          	mov    -0x8(%rbp),%rdx
  8004202e75:	48 89 10             	mov    %rdx,(%rax)

    return pa2page(pa);
  8004202e78:	48 8b 45 f0          	mov    -0x10(%rbp),%rax
  8004202e7c:	48 89 c7             	mov    %rax,%rdi
  8004202e7f:	48 b8 c4 14 20 04 80 	movabs $0x80042014c4,%rax
  8004202e86:	00 00 00 
  8004202e89:	ff d0                	callq  *%rax
}
  8004202e8b:	c9                   	leaveq 
  8004202e8c:	c3                   	retq   

0000008004202e8d <page_remove>:
// Hint: The TA solution is implemented using page_lookup,
// 	tlb_invalidate, and page_decref.
//
void
page_remove(pml4e_t *pml4e, void *va)
{
  8004202e8d:	55                   	push   %rbp
  8004202e8e:	48 89 e5             	mov    %rsp,%rbp
  8004202e91:	48 83 ec 20          	sub    $0x20,%rsp
  8004202e95:	48 89 7d e8          	mov    %rdi,-0x18(%rbp)
  8004202e99:	48 89 75 e0          	mov    %rsi,-0x20(%rbp)
    pte_t *pte = NULL;
  8004202e9d:	48 c7 45 f0 00 00 00 	movq   $0x0,-0x10(%rbp)
  8004202ea4:	00 
    struct PageInfo *page = page_lookup(pml4e, va, &pte);
  8004202ea5:	48 8d 55 f0          	lea    -0x10(%rbp),%rdx
  8004202ea9:	48 8b 4d e0          	mov    -0x20(%rbp),%rcx
  8004202ead:	48 8b 45 e8          	mov    -0x18(%rbp),%rax
  8004202eb1:	48 89 ce             	mov    %rcx,%rsi
  8004202eb4:	48 89 c7             	mov    %rax,%rdi
  8004202eb7:	48 b8 16 2e 20 04 80 	movabs $0x8004202e16,%rax
  8004202ebe:	00 00 00 
  8004202ec1:	ff d0                	callq  *%rax
  8004202ec3:	48 89 45 f8          	mov    %rax,-0x8(%rbp)
    if (page) {
  8004202ec7:	48 83 7d f8 00       	cmpq   $0x0,-0x8(%rbp)
  8004202ecc:	74 41                	je     8004202f0f <page_remove+0x82>
        page_decref(page);
  8004202ece:	48 8b 45 f8          	mov    -0x8(%rbp),%rax
  8004202ed2:	48 89 c7             	mov    %rax,%rdi
  8004202ed5:	48 b8 15 28 20 04 80 	movabs $0x8004202815,%rax
  8004202edc:	00 00 00 
  8004202edf:	ff d0                	callq  *%rax
        if (pte) {
  8004202ee1:	48 8b 45 f0          	mov    -0x10(%rbp),%rax
  8004202ee5:	48 85 c0             	test   %rax,%rax
  8004202ee8:	74 25                	je     8004202f0f <page_remove+0x82>
            *pte = 0;
  8004202eea:	48 8b 45 f0          	mov    -0x10(%rbp),%rax
  8004202eee:	48 c7 00 00 00 00 00 	movq   $0x0,(%rax)
            tlb_invalidate(pml4e, va);
  8004202ef5:	48 8b 55 e0          	mov    -0x20(%rbp),%rdx
  8004202ef9:	48 8b 45 e8          	mov    -0x18(%rbp),%rax
  8004202efd:	48 89 d6             	mov    %rdx,%rsi
  8004202f00:	48 89 c7             	mov    %rax,%rdi
  8004202f03:	48 b8 11 2f 20 04 80 	movabs $0x8004202f11,%rax
  8004202f0a:	00 00 00 
  8004202f0d:	ff d0                	callq  *%rax
        }
    }
}
  8004202f0f:	c9                   	leaveq 
  8004202f10:	c3                   	retq   

0000008004202f11 <tlb_invalidate>:
// Invalidate a TLB entry, but only if the page tables being
// edited are the ones currently in use by the processor.
//
void
tlb_invalidate(pml4e_t *pml4e, void *va)
{
  8004202f11:	55                   	push   %rbp
  8004202f12:	48 89 e5             	mov    %rsp,%rbp
  8004202f15:	48 83 ec 20          	sub    $0x20,%rsp
  8004202f19:	48 89 7d e8          	mov    %rdi,-0x18(%rbp)
  8004202f1d:	48 89 75 e0          	mov    %rsi,-0x20(%rbp)
  8004202f21:	48 8b 45 e0          	mov    -0x20(%rbp),%rax
  8004202f25:	48 89 45 f8          	mov    %rax,-0x8(%rbp)
}

static __inline void 
invlpg(void *addr)
{
	__asm __volatile("invlpg (%0)" : : "r" (addr) : "memory");
  8004202f29:	48 8b 45 f8          	mov    -0x8(%rbp),%rax
  8004202f2d:	0f 01 38             	invlpg (%rax)
    // Flush the entry only if we're modifying the current address space.
    // For now, there is only one address space, so always invalidate.
    invlpg(va);
}
  8004202f30:	c9                   	leaveq 
  8004202f31:	c3                   	retq   

0000008004202f32 <check_page_free_list>:
// Check that the pages on the page_free_list are reasonable.
//

static void
check_page_free_list(bool only_low_memory)
{
  8004202f32:	55                   	push   %rbp
  8004202f33:	48 89 e5             	mov    %rsp,%rbp
  8004202f36:	48 83 ec 60          	sub    $0x60,%rsp
  8004202f3a:	89 f8                	mov    %edi,%eax
  8004202f3c:	88 45 ac             	mov    %al,-0x54(%rbp)
    struct PageInfo *pp;
    unsigned pdx_limit = only_low_memory ? 1 : NPDENTRIES;
  8004202f3f:	80 7d ac 00          	cmpb   $0x0,-0x54(%rbp)
  8004202f43:	74 07                	je     8004202f4c <check_page_free_list+0x1a>
  8004202f45:	b8 01 00 00 00       	mov    $0x1,%eax
  8004202f4a:	eb 05                	jmp    8004202f51 <check_page_free_list+0x1f>
  8004202f4c:	b8 00 02 00 00       	mov    $0x200,%eax
  8004202f51:	89 45 e4             	mov    %eax,-0x1c(%rbp)
    uint64_t nfree_basemem = 0, nfree_extmem = 0;
  8004202f54:	48 c7 45 f0 00 00 00 	movq   $0x0,-0x10(%rbp)
  8004202f5b:	00 
  8004202f5c:	48 c7 45 e8 00 00 00 	movq   $0x0,-0x18(%rbp)
  8004202f63:	00 
    void *first_free_page;

    if (!page_free_list)
  8004202f64:	48 b8 d8 28 22 04 80 	movabs $0x80042228d8,%rax
  8004202f6b:	00 00 00 
  8004202f6e:	48 8b 00             	mov    (%rax),%rax
  8004202f71:	48 85 c0             	test   %rax,%rax
  8004202f74:	75 2a                	jne    8004202fa0 <check_page_free_list+0x6e>
        panic("'page_free_list' is a null pointer!");
  8004202f76:	48 ba d0 e8 20 04 80 	movabs $0x800420e8d0,%rdx
  8004202f7d:	00 00 00 
  8004202f80:	be c6 02 00 00       	mov    $0x2c6,%esi
  8004202f85:	48 bf 3e e7 20 04 80 	movabs $0x800420e73e,%rdi
  8004202f8c:	00 00 00 
  8004202f8f:	b8 00 00 00 00       	mov    $0x0,%eax
  8004202f94:	48 b9 14 01 20 04 80 	movabs $0x8004200114,%rcx
  8004202f9b:	00 00 00 
  8004202f9e:	ff d1                	callq  *%rcx

    if (only_low_memory) {
  8004202fa0:	80 7d ac 00          	cmpb   $0x0,-0x54(%rbp)
  8004202fa4:	0f 84 a9 00 00 00    	je     8004203053 <check_page_free_list+0x121>
        // Move pages with lower addresses first in the free
        // list, since entry_pgdir does not map all pages.
        struct PageInfo *pp1, *pp2;
        struct PageInfo **tp[2] = { &pp1, &pp2 };
  8004202faa:	48 8d 45 d0          	lea    -0x30(%rbp),%rax
  8004202fae:	48 89 45 b0          	mov    %rax,-0x50(%rbp)
  8004202fb2:	48 8d 45 c8          	lea    -0x38(%rbp),%rax
  8004202fb6:	48 89 45 b8          	mov    %rax,-0x48(%rbp)
        for (pp = page_free_list; pp; pp = pp->pp_link) {
  8004202fba:	48 b8 d8 28 22 04 80 	movabs $0x80042228d8,%rax
  8004202fc1:	00 00 00 
  8004202fc4:	48 8b 00             	mov    (%rax),%rax
  8004202fc7:	48 89 45 f8          	mov    %rax,-0x8(%rbp)
  8004202fcb:	eb 58                	jmp    8004203025 <check_page_free_list+0xf3>
            int pagetype = PDX(page2pa(pp)) >= pdx_limit;
  8004202fcd:	48 8b 45 f8          	mov    -0x8(%rbp),%rax
  8004202fd1:	48 89 c7             	mov    %rax,%rdi
  8004202fd4:	48 b8 9f 14 20 04 80 	movabs $0x800420149f,%rax
  8004202fdb:	00 00 00 
  8004202fde:	ff d0                	callq  *%rax
  8004202fe0:	48 c1 e8 15          	shr    $0x15,%rax
  8004202fe4:	25 ff 01 00 00       	and    $0x1ff,%eax
  8004202fe9:	48 89 c2             	mov    %rax,%rdx
  8004202fec:	8b 45 e4             	mov    -0x1c(%rbp),%eax
  8004202fef:	48 39 c2             	cmp    %rax,%rdx
  8004202ff2:	0f 93 c0             	setae  %al
  8004202ff5:	0f b6 c0             	movzbl %al,%eax
  8004202ff8:	89 45 e0             	mov    %eax,-0x20(%rbp)
            *tp[pagetype] = pp;
  8004202ffb:	8b 45 e0             	mov    -0x20(%rbp),%eax
  8004202ffe:	48 98                	cltq   
  8004203000:	48 8b 44 c5 b0       	mov    -0x50(%rbp,%rax,8),%rax
  8004203005:	48 8b 55 f8          	mov    -0x8(%rbp),%rdx
  8004203009:	48 89 10             	mov    %rdx,(%rax)
            tp[pagetype] = &pp->pp_link;
  800420300c:	48 8b 55 f8          	mov    -0x8(%rbp),%rdx
  8004203010:	8b 45 e0             	mov    -0x20(%rbp),%eax
  8004203013:	48 98                	cltq   
  8004203015:	48 89 54 c5 b0       	mov    %rdx,-0x50(%rbp,%rax,8)
    if (only_low_memory) {
        // Move pages with lower addresses first in the free
        // list, since entry_pgdir does not map all pages.
        struct PageInfo *pp1, *pp2;
        struct PageInfo **tp[2] = { &pp1, &pp2 };
        for (pp = page_free_list; pp; pp = pp->pp_link) {
  800420301a:	48 8b 45 f8          	mov    -0x8(%rbp),%rax
  800420301e:	48 8b 00             	mov    (%rax),%rax
  8004203021:	48 89 45 f8          	mov    %rax,-0x8(%rbp)
  8004203025:	48 83 7d f8 00       	cmpq   $0x0,-0x8(%rbp)
  800420302a:	75 a1                	jne    8004202fcd <check_page_free_list+0x9b>
